Archive member included because of file (symbol)

/home/rakeshgarg/cavium/tools/tools-141023/bin/../lib/gcc/mips64-octeon-linux-gnu/4.7.0/n32/libgcc.a(_sf_to_df.o)
                              arch/mips/cpu/octeon/cvmx/libcvmx.o (__extendsfdf2)
/home/rakeshgarg/cavium/tools/tools-141023/bin/../lib/gcc/mips64-octeon-linux-gnu/4.7.0/n32/libgcc.a(_make_df.o)
                              /home/rakeshgarg/cavium/tools/tools-141023/bin/../lib/gcc/mips64-octeon-linux-gnu/4.7.0/n32/libgcc.a(_sf_to_df.o) (__make_dp)
/home/rakeshgarg/cavium/tools/tools-141023/bin/../lib/gcc/mips64-octeon-linux-gnu/4.7.0/n32/libgcc.a(_unpack_sf.o)
                              /home/rakeshgarg/cavium/tools/tools-141023/bin/../lib/gcc/mips64-octeon-linux-gnu/4.7.0/n32/libgcc.a(_sf_to_df.o) (__unpack_f)
/home/rakeshgarg/cavium/tools/tools-141023/bin/../lib/gcc/mips64-octeon-linux-gnu/4.7.0/n32/libgcc.a(_pack_df.o)
                              /home/rakeshgarg/cavium/tools/tools-141023/bin/../lib/gcc/mips64-octeon-linux-gnu/4.7.0/n32/libgcc.a(_make_df.o) (__pack_d)

Allocating common symbols
Common symbol       size              file

console_buffer      0x401             common/libcommon.o
NetDNSenvvar        0x4               net/libnet.o
cvmx_bootinfo_array
                    0x48000           arch/mips/cpu/octeon/libocteon.o
CDPApplianceVLAN    0x2               net/libnet.o
NetArpWaitTry       0x4               net/libnet.o
NetArpWaitPacketMAC
                    0x4               net/libnet.o
NetOurEther         0x6               net/libnet.o
NetOurIP            0x4               net/libnet.o
__cvmx_qlm_jtag_xor_ref
                    0x4               arch/mips/cpu/octeon/cvmx/libcvmx.o
NetPingIP           0x4               net/libnet.o
cvmx_l2c_vrt_spinlock
                    0x4               arch/mips/cpu/octeon/cvmx/libcvmx.o
NetServerIP         0x4               net/libnet.o
lock                0x4               arch/mips/cpu/octeon/cvmx/libcvmx.o
monitor_flash_len   0x4               arch/mips/lib/libmips.o
save_addr           0x4               common/libcommon.o
cvmx_l2c_spinlock   0x4               arch/mips/cpu/octeon/cvmx/libcvmx.o
iface_node_ops      0xb0              arch/mips/cpu/octeon/cvmx/libcvmx.o
___strtok           0x4               lib/libgeneric.o
NetArpWaitTxPacketSize
                    0x4               net/libnet.o
NetRxPackets        0x10              net/libnet.o
boot_desc           0x64000           arch/mips/cpu/octeon/libocteon.o
NetArpWaitPacketIP  0x4               net/libnet.o
cd_count            0xc               common/libcommon.o
super               0x4c              fs/cramfs/libcramfs.o
cvmx_app_id         0x8               arch/mips/cpu/octeon/cvmx/libcvmx.o
boot_cycle_adjustment
                    0x8               arch/mips/cpu/octeon/libocteon.o
BootpTry            0x4               net/libnet.o
cvmx_export_app_config
                    0x4               arch/mips/cpu/octeon/cvmx/libcvmx.o
BootFile            0x80              net/libnet.o
eth_current         0x4               net/libnet.o
NetDNSResolve       0x4               net/libnet.o
env_ptr             0x4               common/libcommon.o
NetServerEther      0x6               net/libnet.o
NetOurSubnetMask    0x4               net/libnet.o
NetBootFileSize     0x2               net/libnet.o
octeon_feature_map  0x80              arch/mips/cpu/octeon/cvmx/libcvmx.o
net_busy_flag       0x4               net/libnet.o
NetIPID             0x4               net/libnet.o
NetRxPacket         0x4               net/libnet.o
net_state           0x4               net/libnet.o
boot_info_block_array
                    0xe000            arch/mips/cpu/octeon/libocteon.o
images              0x1f8             common/libcommon.o
pcpu_cfg_blk        0x4               arch/mips/cpu/octeon/cvmx/libcvmx.o
uboot_prompt        0x40              common/libcommon.o
BootpID             0x4               net/libnet.o
CDPNativeVLAN       0x2               net/libnet.o
NetOurGatewayIP     0x4               net/libnet.o
NetEtherNullAddr    0x6               net/libnet.o
working_fdt         0x4               common/libcommon.o
cvmx_enable_helper_flag
                    0x4               arch/mips/cpu/octeon/cvmx/libcvmx.o
NetRestartWrap      0x4               net/libnet.o
octeon_attr_map     0x8               arch/mips/cpu/octeon/cvmx/libcvmx.o
save_size           0x4               common/libcommon.o
cvmx_override_iface_phy_mode
                    0x4               arch/mips/cpu/octeon/cvmx/libcvmx.o
__cvmx_pko_queue_static_config
                    0x20              arch/mips/cpu/octeon/cvmx/libcvmx.o
NetTxPacket         0x4               net/libnet.o
__cvmx_cmd_queue_state_ptrs
                    0x10              arch/mips/cpu/octeon/cvmx/libcvmx.o
NetBootFileXferSize
                    0x4               net/libnet.o
NetOurDNSIP         0x4               net/libnet.o
NetRxPacketLen      0x4               net/libnet.o
console_devices     0xc               common/libcommon.o
coremask_to_run     0x80              arch/mips/cpu/octeon/libocteon.o
regs                0x3000            arch/mips/cpu/octeon/libocteon.o
octeon_boot_descriptor_flag
                    0x4               arch/mips/cpu/octeon/libocteon.o
NetArpWaitTimerStart
                    0x4               net/libnet.o

Discarded input sections

 .data          0x0000000000000000        0x0 arch/mips/cpu/octeon/start.o
 .bss           0x0000000000000000        0x0 arch/mips/cpu/octeon/start.o
 .reginfo       0x0000000000000000       0x18 arch/mips/cpu/octeon/start.o
 .pdr           0x0000000000000000      0x200 arch/mips/cpu/octeon/start.o
 .reginfo       0x0000000000000000       0x18 api/libapi.o
 .text          0x0000000000000000        0x0 api/libapi.o
 .eh_frame      0x0000000000000000      0x550 api/libapi.o
 .data          0x0000000000000000        0x0 api/libapi.o
 .bss           0x0000000000000000        0x0 api/libapi.o
 .pdr           0x0000000000000000      0x500 api/libapi.o
 .note.GNU-stack
                0x0000000000000000        0x0 api/libapi.o
 .reginfo       0x0000000000000000       0x18 arch/mips/cpu/octeon/cvmx/libcvmx.o
 .text          0x0000000000000000        0x0 arch/mips/cpu/octeon/cvmx/libcvmx.o
 .text.cvmx_bootmem_alloc_range
                0x0000000000000000       0x70 arch/mips/cpu/octeon/cvmx/libcvmx.o
 .text.cvmx_bootmem_alloc
                0x0000000000000000        0xc arch/mips/cpu/octeon/cvmx/libcvmx.o
 .text.cvmx_bootmem_alloc_node
                0x0000000000000000       0x20 arch/mips/cpu/octeon/cvmx/libcvmx.o
 .text.cvmx_bootmem_alloc_address
                0x0000000000000000       0x14 arch/mips/cpu/octeon/cvmx/libcvmx.o
 .text.cvmx_bootmem_phy_alloc_range
                0x0000000000000000       0x60 arch/mips/cpu/octeon/cvmx/libcvmx.o
 .text.cvmx_bootmem_phy_available_mem
                0x0000000000000000       0x98 arch/mips/cpu/octeon/cvmx/libcvmx.o
 .text.cvmx_bootmem_available_mem
                0x0000000000000000        0x8 arch/mips/cpu/octeon/cvmx/libcvmx.o
 .text.cvmx_bootmem_alloc_named_range_flags
                0x0000000000000000       0x74 arch/mips/cpu/octeon/cvmx/libcvmx.o
 .text.cvmx_bootmem_alloc_named_flags
                0x0000000000000000       0x1c arch/mips/cpu/octeon/cvmx/libcvmx.o
 .text.cvmx_bootmem_alloc_named_range
                0x0000000000000000        0x8 arch/mips/cpu/octeon/cvmx/libcvmx.o
 .text.cvmx_bootmem_alloc_named
                0x0000000000000000       0x14 arch/mips/cpu/octeon/cvmx/libcvmx.o
 .text.cvmx_bootmem_alloc_named_address
                0x0000000000000000       0x10 arch/mips/cpu/octeon/cvmx/libcvmx.o
 .text.cvmx_bootmem_print_named
                0x0000000000000000        0x8 arch/mips/cpu/octeon/cvmx/libcvmx.o
 .text.cvmx_bootmem_lock
                0x0000000000000000       0x30 arch/mips/cpu/octeon/cvmx/libcvmx.o
 .text.cvmx_bootmem_unlock
                0x0000000000000000       0x2c arch/mips/cpu/octeon/cvmx/libcvmx.o
 .text.__cvmx_phys_addr_to_ptr
                0x0000000000000000       0x10 arch/mips/cpu/octeon/cvmx/libcvmx.o
 .text.__cvmx_cmd_queue_init_state_ptr
                0x0000000000000000       0xcc arch/mips/cpu/octeon/cvmx/libcvmx.o
 .text.cvmx_cmd_queue_initialize
                0x0000000000000000      0x43c arch/mips/cpu/octeon/cvmx/libcvmx.o
 .text.cvmx_cmd_queue_length
                0x0000000000000000      0x240 arch/mips/cpu/octeon/cvmx/libcvmx.o
 .text.cvmx_cmd_queue_shutdown
                0x0000000000000000      0x1bc arch/mips/cpu/octeon/cvmx/libcvmx.o
 .text.cvmx_cmd_queue_buffer
                0x0000000000000000       0xb0 arch/mips/cpu/octeon/cvmx/libcvmx.o
 .text.__cvmx_cmd_queue_write_raw
                0x0000000000000000      0x228 arch/mips/cpu/octeon/cvmx/libcvmx.o
 .text.cvmx_pko_queue_static_config_non_pknd
                0x0000000000000000       0x94 arch/mips/cpu/octeon/cvmx/libcvmx.o
 .text.cvmx_pko_queue_static_config_pknd
                0x0000000000000000       0x44 arch/mips/cpu/octeon/cvmx/libcvmx.o
 .text.cvmx_pko_queue_static_config
                0x0000000000000000       0x68 arch/mips/cpu/octeon/cvmx/libcvmx.o
 .text.cvmx_ipd_config_init_from_cvmx_config
                0x0000000000000000       0xa0 arch/mips/cpu/octeon/cvmx/libcvmx.o
 .text.cvmx_rgmii_config_init_from_cvmx_config
                0x0000000000000000       0x20 arch/mips/cpu/octeon/cvmx/libcvmx.o
 .text.cvmx_outputbuffer_config_init_from_cvmx_config
                0x0000000000000000        0x8 arch/mips/cpu/octeon/cvmx/libcvmx.o
 .text.cvmx_user_static_config
                0x0000000000000000       0xc8 arch/mips/cpu/octeon/cvmx/libcvmx.o
 .text.cvmx_core_add_wired_tlb_entry
                0x0000000000000000       0xf0 arch/mips/cpu/octeon/cvmx/libcvmx.o
 .text.cvmx_core_add_fixed_tlb_mapping_bits
                0x0000000000000000       0x48 arch/mips/cpu/octeon/cvmx/libcvmx.o
 .text.cvmx_core_add_fixed_tlb_mapping
                0x0000000000000000        0xc arch/mips/cpu/octeon/cvmx/libcvmx.o
 .text.cvmx_coremask_bmp2str
                0x0000000000000000       0xe4 arch/mips/cpu/octeon/cvmx/libcvmx.o
 .text.cvmx_fpa3_set_aura_name
                0x0000000000000000       0x8c arch/mips/cpu/octeon/cvmx/libcvmx.o
 .text.cvmx_fpa3_set_pool_name
                0x0000000000000000       0x8c arch/mips/cpu/octeon/cvmx/libcvmx.o
 .text.cvmx_fpa_set_name
                0x0000000000000000      0x14c arch/mips/cpu/octeon/cvmx/libcvmx.o
 .text.cvmx_fpa3_pool_stack_init.constprop.4
                0x0000000000000000      0x19c arch/mips/cpu/octeon/cvmx/libcvmx.o
 .text.cvmx_fpa3_aura_cfg.constprop.5
                0x0000000000000000      0x274 arch/mips/cpu/octeon/cvmx/libcvmx.o
 .text.cvmx_fpa3_pool_populate
                0x0000000000000000      0x6c0 arch/mips/cpu/octeon/cvmx/libcvmx.o
 .text.cvmx_fpa3_get_pool_buf_size
                0x0000000000000000       0x64 arch/mips/cpu/octeon/cvmx/libcvmx.o
 .text.cvmx_fpa_get_block_size
                0x0000000000000000      0x138 arch/mips/cpu/octeon/cvmx/libcvmx.o
 .text.cvmx_fpa_get_current_count
                0x0000000000000000      0x1d8 arch/mips/cpu/octeon/cvmx/libcvmx.o
 .text.cvmx_fpa3_get_aura_name
                0x0000000000000000       0x40 arch/mips/cpu/octeon/cvmx/libcvmx.o
 .text.cvmx_fpa3_get_pool_name
                0x0000000000000000       0x44 arch/mips/cpu/octeon/cvmx/libcvmx.o
 .text.cvmx_fpa_get_name
                0x0000000000000000      0x110 arch/mips/cpu/octeon/cvmx/libcvmx.o
 .text.cvmx_fpa_global_init_node
                0x0000000000000000      0x2d4 arch/mips/cpu/octeon/cvmx/libcvmx.o
 .text.cvmx_fpa3_setup_fill_pool
                0x0000000000000000      0x228 arch/mips/cpu/octeon/cvmx/libcvmx.o
 .text.cvmx_fpa3_set_aura_for_pool
                0x0000000000000000      0x1c0 arch/mips/cpu/octeon/cvmx/libcvmx.o
 .text.cvmx_fpa3_setup_aura_and_pool
                0x0000000000000000      0x28c arch/mips/cpu/octeon/cvmx/libcvmx.o
 .text.cvmx_fpa1_setup_pool
                0x0000000000000000      0x3fc arch/mips/cpu/octeon/cvmx/libcvmx.o
 .text.cvmx_fpa_setup_pool
                0x0000000000000000      0x148 arch/mips/cpu/octeon/cvmx/libcvmx.o
 .text.cvmx_fpa3_shutdown_aura
                0x0000000000000000      0x108 arch/mips/cpu/octeon/cvmx/libcvmx.o
 .text.cvmx_fpa3_shutdown_pool
                0x0000000000000000      0x5ec arch/mips/cpu/octeon/cvmx/libcvmx.o
 .text.cvmx_fpa3_shutdown_aura_and_pool
                0x0000000000000000       0xdc arch/mips/cpu/octeon/cvmx/libcvmx.o
 .text.cvmx_fpa1_shutdown_pool
                0x0000000000000000      0x184 arch/mips/cpu/octeon/cvmx/libcvmx.o
 .text.cvmx_fpa_shutdown_pool
                0x0000000000000000       0xf8 arch/mips/cpu/octeon/cvmx/libcvmx.o
 .text.cvmx_fpa_get_max_pools
                0x0000000000000000       0xc4 arch/mips/cpu/octeon/cvmx/libcvmx.o
 .text.cvmx_fpa3_get_aura_owner
                0x0000000000000000       0x64 arch/mips/cpu/octeon/cvmx/libcvmx.o
 .text.cvmx_fpa1_get_pool_owner
                0x0000000000000000       0x4c arch/mips/cpu/octeon/cvmx/libcvmx.o
 .text.cvmx_fpa_get_pool_owner
                0x0000000000000000       0xf8 arch/mips/cpu/octeon/cvmx/libcvmx.o
 .text.cvmx_fpa3_reserve_aura
                0x0000000000000000      0x1c0 arch/mips/cpu/octeon/cvmx/libcvmx.o
 .text.cvmx_fpa3_release_aura
                0x0000000000000000       0x88 arch/mips/cpu/octeon/cvmx/libcvmx.o
 .text.cvmx_fpa3_reserve_pool
                0x0000000000000000      0x190 arch/mips/cpu/octeon/cvmx/libcvmx.o
 .text.cvmx_fpa3_release_pool
                0x0000000000000000      0x140 arch/mips/cpu/octeon/cvmx/libcvmx.o
 .text.cvmx_fpa1_reserve_pool
                0x0000000000000000       0xe0 arch/mips/cpu/octeon/cvmx/libcvmx.o
 .text.cvmx_fpa1_release_pool
                0x0000000000000000       0x54 arch/mips/cpu/octeon/cvmx/libcvmx.o
 .text.cvmx_fpa1_is_pool_available
                0x0000000000000000       0x40 arch/mips/cpu/octeon/cvmx/libcvmx.o
 .text.cvmx_fpa3_is_pool_available
                0x0000000000000000       0x44 arch/mips/cpu/octeon/cvmx/libcvmx.o
 .text.cvmx_fpa3_is_aura_available
                0x0000000000000000       0x4c arch/mips/cpu/octeon/cvmx/libcvmx.o
 .text.cvmx_fpa_is_pool_available
                0x0000000000000000       0x70 arch/mips/cpu/octeon/cvmx/libcvmx.o
 .text.cvmx_app_id_init
                0x0000000000000000        0x8 arch/mips/cpu/octeon/cvmx/libcvmx.o
 .text.__cvmx_global_resources_init
                0x0000000000000000       0xc0 arch/mips/cpu/octeon/cvmx/libcvmx.o
 .text.cvmx_get_global_resource
                0x0000000000000000      0x158 arch/mips/cpu/octeon/cvmx/libcvmx.o
 .text.cvmx_create_global_resource
                0x0000000000000000      0x22c arch/mips/cpu/octeon/cvmx/libcvmx.o
 .text.cvmx_create_global_resource_range
                0x0000000000000000      0x10c arch/mips/cpu/octeon/cvmx/libcvmx.o
 .text.cvmx_allocate_global_resource_range
                0x0000000000000000      0x10c arch/mips/cpu/octeon/cvmx/libcvmx.o
 .text.cvmx_resource_alloc_many
                0x0000000000000000       0xc8 arch/mips/cpu/octeon/cvmx/libcvmx.o
 .text.cvmx_resource_alloc_reverse
                0x0000000000000000       0xb4 arch/mips/cpu/octeon/cvmx/libcvmx.o
 .text.cvmx_reserve_global_resource_range
                0x0000000000000000       0xb8 arch/mips/cpu/octeon/cvmx/libcvmx.o
 .text.cvmx_free_global_resource_range_with_base
                0x0000000000000000       0xb0 arch/mips/cpu/octeon/cvmx/libcvmx.o
 .text.cvmx_free_global_resource_range_multiple
                0x0000000000000000       0xb0 arch/mips/cpu/octeon/cvmx/libcvmx.o
 .text.cvmx_free_global_resource_range_with_owner
                0x0000000000000000       0xa0 arch/mips/cpu/octeon/cvmx/libcvmx.o
 .text.cvmx_show_global_resource_range
                0x0000000000000000       0x20 arch/mips/cpu/octeon/cvmx/libcvmx.o
 .text.free_global_resources
                0x0000000000000000      0x104 arch/mips/cpu/octeon/cvmx/libcvmx.o
 .text.cvmx_get_global_resource_owner
                0x0000000000000000       0x44 arch/mips/cpu/octeon/cvmx/libcvmx.o
 .text.cvmx_global_resources_show
                0x0000000000000000      0x10c arch/mips/cpu/octeon/cvmx/libcvmx.o
 .text.cvmx_allocate_app_id
                0x0000000000000000       0x60 arch/mips/cpu/octeon/cvmx/libcvmx.o
 .text.cvmx_get_app_id
                0x0000000000000000       0x38 arch/mips/cpu/octeon/cvmx/libcvmx.o
 .text.__cvmx_helper_get_has_fcs
                0x0000000000000000       0x40 arch/mips/cpu/octeon/cvmx/libcvmx.o
 .text.cvmx_rgmii_set_back_pressure
                0x0000000000000000        0xc arch/mips/cpu/octeon/cvmx/libcvmx.o
 .text.cvmx_helper_get_number_of_interfaces
                0x0000000000000000      0x130 arch/mips/cpu/octeon/cvmx/libcvmx.o
 .text.__cvmx_helper_get_link_info
                0x0000000000000000       0x9c arch/mips/cpu/octeon/cvmx/libcvmx.o
 .text.__cvmx_helper_set_link_info
                0x0000000000000000       0xa4 arch/mips/cpu/octeon/cvmx/libcvmx.o
 .text.__cvmx_helper_shutdown_interfaces_node
                0x0000000000000000       0x58 arch/mips/cpu/octeon/cvmx/libcvmx.o
 .text.__cvmx_helper_shutdown_interfaces
                0x0000000000000000        0xc arch/mips/cpu/octeon/cvmx/libcvmx.o
 .text.__cvmx_helper_init_interface
                0x0000000000000000      0x110 arch/mips/cpu/octeon/cvmx/libcvmx.o
 .text.__cvmx_helper_get_pko_padding
                0x0000000000000000       0x74 arch/mips/cpu/octeon/cvmx/libcvmx.o
 .text.__cvmx_helper_get_num_ipd_ports
                0x0000000000000000       0x78 arch/mips/cpu/octeon/cvmx/libcvmx.o
 .text.cvmx_helper_interface_get_mode
                0x0000000000000000     0x1100 arch/mips/cpu/octeon/cvmx/libcvmx.o
 .text.cvmx_helper_interface_enumerate
                0x0000000000000000       0x98 arch/mips/cpu/octeon/cvmx/libcvmx.o
 .text.cvmx_helper_ports_on_interface
                0x0000000000000000       0x80 arch/mips/cpu/octeon/cvmx/libcvmx.o
 .text.__cvmx_helper_early_ports_on_interface
                0x0000000000000000       0x90 arch/mips/cpu/octeon/cvmx/libcvmx.o
 .text.cvmx_helper_interface_probe
                0x0000000000000000      0x1a0 arch/mips/cpu/octeon/cvmx/libcvmx.o
 .text.__cvmx_helper_backpressure_is_misaligned
                0x0000000000000000      0x358 arch/mips/cpu/octeon/cvmx/libcvmx.o
 .text.__cvmx_helper_packet_hardware_enable
                0x0000000000000000       0x8c arch/mips/cpu/octeon/cvmx/libcvmx.o
 .text.cvmx_helper_ipd_and_packet_input_enable_node
                0x0000000000000000      0x178 arch/mips/cpu/octeon/cvmx/libcvmx.o
 .text.cvmx_helper_ipd_and_packet_input_enable
                0x0000000000000000        0xc arch/mips/cpu/octeon/cvmx/libcvmx.o
 .text.cvmx_helper_initialize_packet_io_local
                0x0000000000000000       0x54 arch/mips/cpu/octeon/cvmx/libcvmx.o
 .text.cvmx_gmx_set_backpressure_override
                0x0000000000000000      0x16c arch/mips/cpu/octeon/cvmx/libcvmx.o
 .text.cvmx_agl_set_backpressure_override
                0x0000000000000000      0x130 arch/mips/cpu/octeon/cvmx/libcvmx.o
 .text.cvmx_helper_initialize_packet_io_node
                0x0000000000000000      0x6e8 arch/mips/cpu/octeon/cvmx/libcvmx.o
 .text.cvmx_helper_initialize_packet_io_global
                0x0000000000000000        0xc arch/mips/cpu/octeon/cvmx/libcvmx.o
 .text.cvmx_helper_shutdown_packet_io_global_cn78xx
                0x0000000000000000      0x1b8 arch/mips/cpu/octeon/cvmx/libcvmx.o
 .text.cvmx_helper_shutdown_packet_io_global
                0x0000000000000000     0x1f6c arch/mips/cpu/octeon/cvmx/libcvmx.o
 .text.cvmx_helper_shutdown_packet_io_local
                0x0000000000000000        0x8 arch/mips/cpu/octeon/cvmx/libcvmx.o
 .text.cvmx_helper_link_get
                0x0000000000000000       0xdc arch/mips/cpu/octeon/cvmx/libcvmx.o
 .text.cvmx_helper_link_set
                0x0000000000000000       0xfc arch/mips/cpu/octeon/cvmx/libcvmx.o
 .text.cvmx_helper_link_autoconf
                0x0000000000000000       0xa0 arch/mips/cpu/octeon/cvmx/libcvmx.o
 .text.cvmx_helper_configure_loopback
                0x0000000000000000      0x100 arch/mips/cpu/octeon/cvmx/libcvmx.o
 .text.cvmx_helper_setup_simulator_io_buffer_counts
                0x0000000000000000       0xb0 arch/mips/cpu/octeon/cvmx/libcvmx.o
 .text.cvmx_helper_mem_alloc
                0x0000000000000000       0x78 arch/mips/cpu/octeon/cvmx/libcvmx.o
 .text.cvmx_helper_mem_free
                0x0000000000000000       0x28 arch/mips/cpu/octeon/cvmx/libcvmx.o
 .text.__cvmx_helper_bgx_enumerate
                0x0000000000000000      0x134 arch/mips/cpu/octeon/cvmx/libcvmx.o
 .text.cvmx_helper_bgx_index
                0x0000000000000000      0x17c arch/mips/cpu/octeon/cvmx/libcvmx.o
 .text.__cvmx_helper_bgx_xaui_link_init
                0x0000000000000000      0x73c arch/mips/cpu/octeon/cvmx/libcvmx.o
 .text.__cvmx_helper_bgx_sgmii_hardware_init_link
                0x0000000000000000      0x318 arch/mips/cpu/octeon/cvmx/libcvmx.o
 .text.cvmx_helper_bgx_disable
                0x0000000000000000      0x104 arch/mips/cpu/octeon/cvmx/libcvmx.o
 .text.__cvmx_helper_bgx_probe
                0x0000000000000000      0x21c arch/mips/cpu/octeon/cvmx/libcvmx.o
 .text.__cvmx_helper_bgx_sgmii_link_get
                0x0000000000000000      0x158 arch/mips/cpu/octeon/cvmx/libcvmx.o
 .text.cvmx_helper_bgx_errata_22429
                0x0000000000000000      0x15c arch/mips/cpu/octeon/cvmx/libcvmx.o
 .text.__cvmx_helper_bgx_sgmii_link_set
                0x0000000000000000      0x554 arch/mips/cpu/octeon/cvmx/libcvmx.o
 .text.__cvmx_helper_bgx_port_init
                0x0000000000000000      0xac0 arch/mips/cpu/octeon/cvmx/libcvmx.o
 .text.__cvmx_helper_bgx_sgmii_enable
                0x0000000000000000       0x9c arch/mips/cpu/octeon/cvmx/libcvmx.o
 .text.__cvmx_helper_bgx_sgmii_configure_loopback
                0x0000000000000000      0x148 arch/mips/cpu/octeon/cvmx/libcvmx.o
 .text.__cvmx_helper_bgx_xaui_enable
                0x0000000000000000       0xc0 arch/mips/cpu/octeon/cvmx/libcvmx.o
 .text.__cvmx_helper_bgx_xaui_link_get
                0x0000000000000000      0x200 arch/mips/cpu/octeon/cvmx/libcvmx.o
 .text.__cvmx_helper_bgx_xaui_link_set
                0x0000000000000000      0x130 arch/mips/cpu/octeon/cvmx/libcvmx.o
 .text.__cvmx_helper_bgx_xaui_configure_loopback
                0x0000000000000000      0x130 arch/mips/cpu/octeon/cvmx/libcvmx.o
 .text.__cvmx_helper_bgx_xaui_config_pfc
                0x0000000000000000       0xb4 arch/mips/cpu/octeon/cvmx/libcvmx.o
 .text.cvmx_helper_bgx_rx_pause_ctl
                0x0000000000000000       0xc0 arch/mips/cpu/octeon/cvmx/libcvmx.o
 .text.cvmx_helper_bgx_rx_adr_ctl
                0x0000000000000000       0xcc arch/mips/cpu/octeon/cvmx/libcvmx.o
 .text.cvmx_helper_bgx_tx_options
                0x0000000000000000      0x18c arch/mips/cpu/octeon/cvmx/libcvmx.o
 .text.cvmx_helper_bgx_set_mac
                0x0000000000000000      0x1c0 arch/mips/cpu/octeon/cvmx/libcvmx.o
 .text.cvmx_bgx_set_backpressure_override
                0x0000000000000000       0xd0 arch/mips/cpu/octeon/cvmx/libcvmx.o
 .text.cvmx_helper_bgx_set_jabber
                0x0000000000000000      0x150 arch/mips/cpu/octeon/cvmx/libcvmx.o
 .text.cvmx_helper_bgx_shutdown_port
                0x0000000000000000      0x46c arch/mips/cpu/octeon/cvmx/libcvmx.o
 .text.__cvmx_get_cortina_phy_link_state
                0x0000000000000000     0x386c arch/mips/cpu/octeon/cvmx/libcvmx.o
 .text.__get_generic_8023_c45_phy_link_state
                0x0000000000000000     0x1860 arch/mips/cpu/octeon/cvmx/libcvmx.o
 .text.__get_marvell_phy_link_state
                0x0000000000000000     0x103c arch/mips/cpu/octeon/cvmx/libcvmx.o
 .text.__get_broadcom_phy_link_state
                0x0000000000000000      0x5cc arch/mips/cpu/octeon/cvmx/libcvmx.o
 .text.__cvmx_get_generic_8023_c22_phy_link_state
                0x0000000000000000     0x1ea4 arch/mips/cpu/octeon/cvmx/libcvmx.o
 .text.__cvmx_get_qualcomm_s17_phy_link_state
                0x0000000000000000      0xaa8 arch/mips/cpu/octeon/cvmx/libcvmx.o
 .text.__get_inband_link_state
                0x0000000000000000       0xac arch/mips/cpu/octeon/cvmx/libcvmx.o
 .text.__set_twsi_mux
                0x0000000000000000       0xc8 arch/mips/cpu/octeon/cvmx/libcvmx.o
 .text.__switch_mdio_mux
                0x0000000000000000      0x654 arch/mips/cpu/octeon/cvmx/libcvmx.o
 .text.__pip_eth_node
                0x0000000000000000      0x118 arch/mips/cpu/octeon/cvmx/libcvmx.o
 .text.__mix_eth_node
                0x0000000000000000       0x68 arch/mips/cpu/octeon/cvmx/libcvmx.o
 .text.__cvmx_helper_parse_78xx_bgx_dt
                0x0000000000000000      0x1b0 arch/mips/cpu/octeon/cvmx/libcvmx.o
 .text.__cvmx_helper_78xx_parse_phy
                0x0000000000000000      0x400 arch/mips/cpu/octeon/cvmx/libcvmx.o
 .text.__cvmx_helper_board_get_port_from_dt
                0x0000000000000000      0x378 arch/mips/cpu/octeon/cvmx/libcvmx.o
 .text.__get_phy_info_from_dt
                0x0000000000000000      0x83c arch/mips/cpu/octeon/cvmx/libcvmx.o
 .text.cvmx_helper_board_get_phy_info
                0x0000000000000000       0x20 arch/mips/cpu/octeon/cvmx/libcvmx.o
 .text.cvmx_helper_board_get_mii_address_from_dt
                0x0000000000000000       0x2c arch/mips/cpu/octeon/cvmx/libcvmx.o
 .text.__cvmx_helper_board_get_phy_host_mode_from_dt
                0x0000000000000000       0x2c arch/mips/cpu/octeon/cvmx/libcvmx.o
 .text.cvmx_helper_board_get_phy_host_mode
                0x0000000000000000        0x8 arch/mips/cpu/octeon/cvmx/libcvmx.o
 .text.cvmx_helper_board_get_mii_address
                0x0000000000000000      0x4a0 arch/mips/cpu/octeon/cvmx/libcvmx.o
 .text.__cvmx_helper_board_link_get_from_dt
                0x0000000000000000      0x2d0 arch/mips/cpu/octeon/cvmx/libcvmx.o
 .text.__cvmx_helper_board_link_get
                0x0000000000000000      0x314 arch/mips/cpu/octeon/cvmx/libcvmx.o
 .text.cvmx_helper_board_link_set_phy
                0x0000000000000000     0x6448 arch/mips/cpu/octeon/cvmx/libcvmx.o
 .text.__cvmx_helper_board_interface_probe
                0x0000000000000000       0xe4 arch/mips/cpu/octeon/cvmx/libcvmx.o
 .text.__cvmx_helper_board_hardware_enable
                0x0000000000000000      0x8b0 arch/mips/cpu/octeon/cvmx/libcvmx.o
 .text.__cvmx_helper_board_usb_get_clock_type
                0x0000000000000000      0x244 arch/mips/cpu/octeon/cvmx/libcvmx.o
 .text.__cvmx_helper_board_usb_get_num_ports
                0x0000000000000000       0x74 arch/mips/cpu/octeon/cvmx/libcvmx.o
 .text.__cvmx_helper_cfg_pknd
                0x0000000000000000       0x4c arch/mips/cpu/octeon/cvmx/libcvmx.o
 .text.__cvmx_helper_cfg_bpid
                0x0000000000000000       0x4c arch/mips/cpu/octeon/cvmx/libcvmx.o
 .text.__cvmx_helper_cfg_pko_port_base
                0x0000000000000000       0x4c arch/mips/cpu/octeon/cvmx/libcvmx.o
 .text.__cvmx_helper_cfg_pko_port_num
                0x0000000000000000       0x4c arch/mips/cpu/octeon/cvmx/libcvmx.o
 .text.__cvmx_helper_cfg_pko_queue_num
                0x0000000000000000       0x18 arch/mips/cpu/octeon/cvmx/libcvmx.o
 .text.__cvmx_helper_cfg_pko_queue_base
                0x0000000000000000       0x18 arch/mips/cpu/octeon/cvmx/libcvmx.o
 .text.__cvmx_helper_cfg_pko_max_queue
                0x0000000000000000        0xc arch/mips/cpu/octeon/cvmx/libcvmx.o
 .text.__cvmx_helper_cfg_pko_max_engine
                0x0000000000000000        0xc arch/mips/cpu/octeon/cvmx/libcvmx.o
 .text.cvmx_helper_cfg_opt_set
                0x0000000000000000       0x20 arch/mips/cpu/octeon/cvmx/libcvmx.o
 .text.cvmx_helper_cfg_opt_get
                0x0000000000000000       0x18 arch/mips/cpu/octeon/cvmx/libcvmx.o
 .text.init_cvmx_pko_que_range
                0x0000000000000000       0x8c arch/mips/cpu/octeon/cvmx/libcvmx.o
 .text.cvmx_pko_queue_alloc
                0x0000000000000000      0x114 arch/mips/cpu/octeon/cvmx/libcvmx.o
 .text.cvmx_pko_queue_grp_alloc
                0x0000000000000000       0x9c arch/mips/cpu/octeon/cvmx/libcvmx.o
 .text.cvmx_pko_queue_init_from_cvmx_config_non_pknd
                0x0000000000000000       0xc4 arch/mips/cpu/octeon/cvmx/libcvmx.o
 .text.cvmx_pko_queue_free
                0x0000000000000000       0x90 arch/mips/cpu/octeon/cvmx/libcvmx.o
 .text.cvmx_pko_queue_free_all
                0x0000000000000000       0x68 arch/mips/cpu/octeon/cvmx/libcvmx.o
 .text.cvmx_pko_queue_show
                0x0000000000000000       0x48 arch/mips/cpu/octeon/cvmx/libcvmx.o
 .text.cvmx_helper_cfg_show_cfg
                0x0000000000000000       0x70 arch/mips/cpu/octeon/cvmx/libcvmx.o
 .text.cvmx_helper_cfg_init_pko_port_map
                0x0000000000000000      0x1b0 arch/mips/cpu/octeon/cvmx/libcvmx.o
 .text.cvmx_helper_cfg_set_jabber_and_frame_max
                0x0000000000000000      0xde4 arch/mips/cpu/octeon/cvmx/libcvmx.o
 .text.cvmx_helper_cfg_store_short_packets_in_wqe
                0x0000000000000000      0x190 arch/mips/cpu/octeon/cvmx/libcvmx.o
 .text.__cvmx_helper_cfg_pko_port_interface
                0x0000000000000000       0x1c arch/mips/cpu/octeon/cvmx/libcvmx.o
 .text.__cvmx_helper_cfg_pko_port_index
                0x0000000000000000       0x1c arch/mips/cpu/octeon/cvmx/libcvmx.o
 .text.__cvmx_helper_cfg_pko_port_eid
                0x0000000000000000       0x1c arch/mips/cpu/octeon/cvmx/libcvmx.o
 .text.__cvmx_helper_cfg_init_ipd2pko_cache
                0x0000000000000000       0xe0 arch/mips/cpu/octeon/cvmx/libcvmx.o
 .text.cvmx_helper_cfg_ipd2pko_port_base
                0x0000000000000000       0x60 arch/mips/cpu/octeon/cvmx/libcvmx.o
 .text.cvmx_helper_cfg_ipd2pko_port_num
                0x0000000000000000       0x30 arch/mips/cpu/octeon/cvmx/libcvmx.o
 .text.cvmx_helper_is_port_valid
                0x0000000000000000       0x50 arch/mips/cpu/octeon/cvmx/libcvmx.o
 .text.cvmx_helper_set_port_valid
                0x0000000000000000       0x58 arch/mips/cpu/octeon/cvmx/libcvmx.o
 .text.cvmx_helper_set_mac_phy_mode
                0x0000000000000000       0x58 arch/mips/cpu/octeon/cvmx/libcvmx.o
 .text.cvmx_helper_get_mac_phy_mode
                0x0000000000000000       0x50 arch/mips/cpu/octeon/cvmx/libcvmx.o
 .text.cvmx_helper_set_1000x_mode
                0x0000000000000000       0x58 arch/mips/cpu/octeon/cvmx/libcvmx.o
 .text.cvmx_helper_get_1000x_mode
                0x0000000000000000       0x50 arch/mips/cpu/octeon/cvmx/libcvmx.o
 .text.cvmx_helper_set_agl_rx_clock_delay_bypass
                0x0000000000000000       0x58 arch/mips/cpu/octeon/cvmx/libcvmx.o
 .text.cvmx_helper_get_agl_rx_clock_delay_bypass
                0x0000000000000000       0x50 arch/mips/cpu/octeon/cvmx/libcvmx.o
 .text.cvmx_helper_set_agl_rx_clock_skew
                0x0000000000000000       0x4c arch/mips/cpu/octeon/cvmx/libcvmx.o
 .text.cvmx_helper_get_agl_rx_clock_skew
                0x0000000000000000       0x4c arch/mips/cpu/octeon/cvmx/libcvmx.o
 .text.cvmx_helper_set_port_force_link_up
                0x0000000000000000       0x58 arch/mips/cpu/octeon/cvmx/libcvmx.o
 .text.cvmx_helper_get_port_force_link_up
                0x0000000000000000       0x50 arch/mips/cpu/octeon/cvmx/libcvmx.o
 .text.cvmx_helper_set_port_phy_present
                0x0000000000000000       0x58 arch/mips/cpu/octeon/cvmx/libcvmx.o
 .text.cvmx_helper_get_port_phy_present
                0x0000000000000000       0x50 arch/mips/cpu/octeon/cvmx/libcvmx.o
 .text.__cvmx_helper_init_port_valid
                0x0000000000000000       0xec arch/mips/cpu/octeon/cvmx/libcvmx.o
 .text.__cvmx_helper_init_port_config_data_local
                0x0000000000000000       0xc0 arch/mips/cpu/octeon/cvmx/libcvmx.o
 .text.cvmx_pko_alloc_iport_and_queues
                0x0000000000000000      0x16c arch/mips/cpu/octeon/cvmx/libcvmx.o
 .text.__cvmx_helper_init_port_config_data
                0x0000000000000000      0x584 arch/mips/cpu/octeon/cvmx/libcvmx.o
 .text.cvmx_helper_set_port_fdt_node_offset
                0x0000000000000000       0x4c arch/mips/cpu/octeon/cvmx/libcvmx.o
 .text.cvmx_helper_get_port_fdt_node_offset
                0x0000000000000000       0x4c arch/mips/cpu/octeon/cvmx/libcvmx.o
 .text.cvmx_helper_set_phy_fdt_node_offset
                0x0000000000000000       0x4c arch/mips/cpu/octeon/cvmx/libcvmx.o
 .text.cvmx_helper_get_phy_fdt_node_offset
                0x0000000000000000       0x4c arch/mips/cpu/octeon/cvmx/libcvmx.o
 .text.cvmx_helper_set_port_autonegotiation
                0x0000000000000000       0x5c arch/mips/cpu/octeon/cvmx/libcvmx.o
 .text.cvmx_helper_get_port_autonegotiation
                0x0000000000000000       0x54 arch/mips/cpu/octeon/cvmx/libcvmx.o
 .text.cvmx_helper_set_port_phy_info
                0x0000000000000000       0x4c arch/mips/cpu/octeon/cvmx/libcvmx.o
 .text.cvmx_helper_get_port_phy_info
                0x0000000000000000       0x4c arch/mips/cpu/octeon/cvmx/libcvmx.o
 .text.__cvmx_helper_errata_fix_ipd_ptr_alignment
                0x0000000000000000      0xbc0 arch/mips/cpu/octeon/cvmx/libcvmx.o
 .text.cvmx_helper_fix_ipd_packet_chain
                0x0000000000000000      0x138 arch/mips/cpu/octeon/cvmx/libcvmx.o
 .text.cvmx_fdt_get_gpio_type
                0x0000000000000000       0xc4 arch/mips/cpu/octeon/cvmx/libcvmx.o
 .text.cvmx_fdt_get_twsi_gpio_bus_addr
                0x0000000000000000      0x128 arch/mips/cpu/octeon/cvmx/libcvmx.o
 .text.cvmx_fdt_get_cpu_node
                0x0000000000000000       0xac arch/mips/cpu/octeon/cvmx/libcvmx.o
 .text.cvmx_helper_fpa1_dump
                0x0000000000000000      0x138 arch/mips/cpu/octeon/cvmx/libcvmx.o
 .text.cvmx_helper_fpa3_dump
                0x0000000000000000      0x410 arch/mips/cpu/octeon/cvmx/libcvmx.o
 .text.cvmx_helper_fpa_dump
                0x0000000000000000       0x7c arch/mips/cpu/octeon/cvmx/libcvmx.o
 .text.cvmx_helper_shutdown_fpa_pools
                0x0000000000000000      0x2c4 arch/mips/cpu/octeon/cvmx/libcvmx.o
 .text.__cvmx_helper_initialize_fpa_pool
                0x0000000000000000       0x18 arch/mips/cpu/octeon/cvmx/libcvmx.o
 .text.cvmx_helper_initialize_fpa
                0x0000000000000000      0x468 arch/mips/cpu/octeon/cvmx/libcvmx.o
 .text.unlikely.cvmx_packet_short_ptr_calculate
                0x0000000000000000      0x23c arch/mips/cpu/octeon/cvmx/libcvmx.o
 .text.cvmx_helper_get_version
                0x0000000000000000        0xc arch/mips/cpu/octeon/cvmx/libcvmx.o
 .text.cvmx_helper_interface_mode_to_string
                0x0000000000000000       0x2c arch/mips/cpu/octeon/cvmx/libcvmx.o
 .text.cvmx_wqe_get_packet_ptr
                0x0000000000000000      0x2e8 arch/mips/cpu/octeon/cvmx/libcvmx.o
 .text.cvmx_helper_dump_packet
                0x0000000000000000      0x588 arch/mips/cpu/octeon/cvmx/libcvmx.o
 .text.cvmx_wqe_free
                0x0000000000000000      0x188 arch/mips/cpu/octeon/cvmx/libcvmx.o
 .text.cvmx_helper_free_packet_data
                0x0000000000000000      0x470 arch/mips/cpu/octeon/cvmx/libcvmx.o
 .text.cvmx_helper_setup_legacy_red
                0x0000000000000000      0x1ec arch/mips/cpu/octeon/cvmx/libcvmx.o
 .text.cvmx_helper_setup_red
                0x0000000000000000       0x84 arch/mips/cpu/octeon/cvmx/libcvmx.o
 .text.__cvmx_helper_setup_gmx
                0x0000000000000000      0x6f4 arch/mips/cpu/octeon/cvmx/libcvmx.o
 .text.cvmx_helper_get_pko_port
                0x0000000000000000        0x8 arch/mips/cpu/octeon/cvmx/libcvmx.o
 .text.cvmx_helper_get_ipd_port
                0x0000000000000000      0x230 arch/mips/cpu/octeon/cvmx/libcvmx.o
 .text.cvmx_helper_get_pknd
                0x0000000000000000       0x94 arch/mips/cpu/octeon/cvmx/libcvmx.o
 .text.cvmx_helper_get_bpid
                0x0000000000000000       0x94 arch/mips/cpu/octeon/cvmx/libcvmx.o
 .text.cvmx_helper_get_interface_num
                0x0000000000000000      0x218 arch/mips/cpu/octeon/cvmx/libcvmx.o
 .text.cvmx_helper_get_interface_index_num
                0x0000000000000000      0x1f4 arch/mips/cpu/octeon/cvmx/libcvmx.o
 .text.cvmx_helper_show_stats
                0x0000000000000000      0x50c arch/mips/cpu/octeon/cvmx/libcvmx.o
 .text.cvmx_safe_printf
                0x0000000000000000       0xa8 arch/mips/cpu/octeon/cvmx/libcvmx.o
 .text.__cvmx_interrupt_dump_registers
                0x0000000000000000      0x1a4 arch/mips/cpu/octeon/cvmx/libcvmx.o
 .text.__cvmx_interrupt_default_exception_handler
                0x0000000000000000       0x6c arch/mips/cpu/octeon/cvmx/libcvmx.o
 .text.__read_l2_tag
                0x0000000000000000       0x70 arch/mips/cpu/octeon/cvmx/libcvmx.o
 .text.cvmx_l2c_get_core_way_partition
                0x0000000000000000      0x1b0 arch/mips/cpu/octeon/cvmx/libcvmx.o
 .text.cvmx_l2c_get_hw_way_partition
                0x0000000000000000       0xa0 arch/mips/cpu/octeon/cvmx/libcvmx.o
 .text.cvmx_l2c_get_hw_way_partition2
                0x0000000000000000       0x84 arch/mips/cpu/octeon/cvmx/libcvmx.o
 .text.cvmx_l2c_config_perf
                0x0000000000000000      0x1e8 arch/mips/cpu/octeon/cvmx/libcvmx.o
 .text.cvmx_l2c_read_perf
                0x0000000000000000      0x430 arch/mips/cpu/octeon/cvmx/libcvmx.o
 .text.cvmx_l2c_get_cache_size_bytes
                0x0000000000000000       0x30 arch/mips/cpu/octeon/cvmx/libcvmx.o
 .text.cvmx_l2c_get_tag
                0x0000000000000000      0x304 arch/mips/cpu/octeon/cvmx/libcvmx.o
 .text.cvmx_l2c_get_tag_v2
                0x0000000000000000      0x350 arch/mips/cpu/octeon/cvmx/libcvmx.o
 .text.cvmx_l2c_set_hw_way_partition2
                0x0000000000000000       0xc0 arch/mips/cpu/octeon/cvmx/libcvmx.o
 .text.cvmx_l2c_set_hw_way_partition
                0x0000000000000000      0x120 arch/mips/cpu/octeon/cvmx/libcvmx.o
 .text.cvmx_l2c_set_core_way_partition
                0x0000000000000000      0x238 arch/mips/cpu/octeon/cvmx/libcvmx.o
 .text.cvmx_l2c_unlock_line
                0x0000000000000000      0x1a0 arch/mips/cpu/octeon/cvmx/libcvmx.o
 .text.cvmx_l2c_unlock_mem_region
                0x0000000000000000       0x68 arch/mips/cpu/octeon/cvmx/libcvmx.o
 .text.cvmx_l2c_set_big_size_node
                0x0000000000000000      0x2c0 arch/mips/cpu/octeon/cvmx/libcvmx.o
 .text.cvmx_l2c_set_big_size
                0x0000000000000000       0x14 arch/mips/cpu/octeon/cvmx/libcvmx.o
 .text.cvmx_l2c_vrt_set_max_virtids
                0x0000000000000000      0x1d0 arch/mips/cpu/octeon/cvmx/libcvmx.o
 .text.cvmx_l2c_vrt_get_max_virtids
                0x0000000000000000       0xb8 arch/mips/cpu/octeon/cvmx/libcvmx.o
 .text.cvmx_l2c_vrt_set_max_memsz
                0x0000000000000000      0x264 arch/mips/cpu/octeon/cvmx/libcvmx.o
 .text.cvmx_l2c_vrt_assign_virtid
                0x0000000000000000      0x210 arch/mips/cpu/octeon/cvmx/libcvmx.o
 .text.cvmx_l2c_vrt_remove_virtid
                0x0000000000000000      0x10c arch/mips/cpu/octeon/cvmx/libcvmx.o
 .text.__cvmx_l2c_vrt_get_granularity
                0x0000000000000000       0x80 arch/mips/cpu/octeon/cvmx/libcvmx.o
 .text.cvmx_l2c_vrt_memprotect
                0x0000000000000000      0x408 arch/mips/cpu/octeon/cvmx/libcvmx.o
 .text.cvmx_l2c_vrt_enable
                0x0000000000000000       0x9c arch/mips/cpu/octeon/cvmx/libcvmx.o
 .text.cvmx_l2c_vrt_disable
                0x0000000000000000       0x88 arch/mips/cpu/octeon/cvmx/libcvmx.o
 .text.cvmx_pcie_get_io_base_address
                0x0000000000000000       0x24 arch/mips/cpu/octeon/cvmx/libcvmx.o
 .text.cvmx_pcie_get_io_size
                0x0000000000000000        0xc arch/mips/cpu/octeon/cvmx/libcvmx.o
 .text.cvmx_pcie_get_mem_base_address
                0x0000000000000000       0x28 arch/mips/cpu/octeon/cvmx/libcvmx.o
 .text.cvmx_pcie_get_mem_size
                0x0000000000000000        0xc arch/mips/cpu/octeon/cvmx/libcvmx.o
 .text.cvmx_pcie_rc_shutdown
                0x0000000000000000      0x1dc arch/mips/cpu/octeon/cvmx/libcvmx.o
 .text.cvmx_pcie_cfgx_read
                0x0000000000000000       0x14 arch/mips/cpu/octeon/cvmx/libcvmx.o
 .text.__cvmx_pcie_build_config_addr
                0x0000000000000000       0xa8 arch/mips/cpu/octeon/cvmx/libcvmx.o
 .text.cvmx_pcie_config_write32
                0x0000000000000000       0x64 arch/mips/cpu/octeon/cvmx/libcvmx.o
 .text.cvmx_pcie_config_write16
                0x0000000000000000       0x5c arch/mips/cpu/octeon/cvmx/libcvmx.o
 .text.cvmx_pcie_config_write8
                0x0000000000000000       0x5c arch/mips/cpu/octeon/cvmx/libcvmx.o
 .text.cvmx_pcie_config_read32
                0x0000000000000000       0x58 arch/mips/cpu/octeon/cvmx/libcvmx.o
 .text.cvmx_pcie_config_read16
                0x0000000000000000       0x58 arch/mips/cpu/octeon/cvmx/libcvmx.o
 .text.cvmx_pcie_config_read8
                0x0000000000000000       0x54 arch/mips/cpu/octeon/cvmx/libcvmx.o
 .text.cvmx_pcie_cfgx_write
                0x0000000000000000       0x1c arch/mips/cpu/octeon/cvmx/libcvmx.o
 .text.__cvmx_pcie_rc_initialize_config_space
                0x0000000000000000      0x658 arch/mips/cpu/octeon/cvmx/libcvmx.o
 .text.__cvmx_pcie_rc_initialize_link_gen2
                0x0000000000000000      0x51c arch/mips/cpu/octeon/cvmx/libcvmx.o
 .text.cvmx_pcie_rc_initialize
                0x0000000000000000     0x17c8 arch/mips/cpu/octeon/cvmx/libcvmx.o
 .text.cvmx_pcie_wait_for_pending
                0x0000000000000000      0x198 arch/mips/cpu/octeon/cvmx/libcvmx.o
 .text.cvmx_pcie_is_host_mode
                0x0000000000000000      0x14c arch/mips/cpu/octeon/cvmx/libcvmx.o
 .text.cvmx_pcie_ep_initialize
                0x0000000000000000      0x254 arch/mips/cpu/octeon/cvmx/libcvmx.o
 .text.cvmx_power_throttle_csr_op
                0x0000000000000000      0x218 arch/mips/cpu/octeon/cvmx/libcvmx.o
 .text.cvmx_power_throttle_init
                0x0000000000000000       0x50 arch/mips/cpu/octeon/cvmx/libcvmx.o
 .text.cvmx_power_throttle_set_powlim.part.0
                0x0000000000000000       0xb8 arch/mips/cpu/octeon/cvmx/libcvmx.o
 .text.cvmx_power_throttle_get_powlim
                0x0000000000000000       0x84 arch/mips/cpu/octeon/cvmx/libcvmx.o
 .text.cvmx_power_throttle_show
                0x0000000000000000       0x28 arch/mips/cpu/octeon/cvmx/libcvmx.o
 .text.cvmx_power_throttle_self
                0x0000000000000000       0x88 arch/mips/cpu/octeon/cvmx/libcvmx.o
 .text.cvmx_power_throttle
                0x0000000000000000      0x164 arch/mips/cpu/octeon/cvmx/libcvmx.o
 .text.cvmx_init_pcpu_block.constprop.1
                0x0000000000000000       0xc8 arch/mips/cpu/octeon/cvmx/libcvmx.o
 .text.cvmx_read_config_blk
                0x0000000000000000       0x78 arch/mips/cpu/octeon/cvmx/libcvmx.o
 .text.cvmx_update_perfcnt_irq
                0x0000000000000000       0x14 arch/mips/cpu/octeon/cvmx/libcvmx.o
 .text.cvmx_collect_sample
                0x0000000000000000      0x144 arch/mips/cpu/octeon/cvmx/libcvmx.o
 .text.cvmx_range_memory_size
                0x0000000000000000        0xc arch/mips/cpu/octeon/cvmx/libcvmx.o
 .text.cvmx_range_init
                0x0000000000000000       0x48 arch/mips/cpu/octeon/cvmx/libcvmx.o
 .text.cvmx_range_alloc_ordered
                0x0000000000000000      0x198 arch/mips/cpu/octeon/cvmx/libcvmx.o
 .text.cvmx_range_alloc
                0x0000000000000000        0x8 arch/mips/cpu/octeon/cvmx/libcvmx.o
 .text.cvmx_range_alloc_non_contiguos
                0x0000000000000000       0xa0 arch/mips/cpu/octeon/cvmx/libcvmx.o
 .text.cvmx_range_reserve
                0x0000000000000000       0x94 arch/mips/cpu/octeon/cvmx/libcvmx.o
 .text.cvmx_range_free_with_owner
                0x0000000000000000       0x58 arch/mips/cpu/octeon/cvmx/libcvmx.o
 .text.__cvmx_range_is_allocated
                0x0000000000000000       0x68 arch/mips/cpu/octeon/cvmx/libcvmx.o
 .text.cvmx_range_free_mutiple
                0x0000000000000000       0x8c arch/mips/cpu/octeon/cvmx/libcvmx.o
 .text.cvmx_range_free_with_base
                0x0000000000000000       0x60 arch/mips/cpu/octeon/cvmx/libcvmx.o
 .text.cvmx_range_get_owner
                0x0000000000000000       0x38 arch/mips/cpu/octeon/cvmx/libcvmx.o
 .text.cvmx_range_show
                0x0000000000000000       0x50 arch/mips/cpu/octeon/cvmx/libcvmx.o
 .text.cvmx_sysinfo_add_self_to_core_mask
                0x0000000000000000       0x74 arch/mips/cpu/octeon/cvmx/libcvmx.o
 .text.cvmx_sysinfo_remove_self_from_core_mask
                0x0000000000000000       0x78 arch/mips/cpu/octeon/cvmx/libcvmx.o
 .text.cvmx_twsix_write_llc_reg
                0x0000000000000000       0x64 arch/mips/cpu/octeon/cvmx/libcvmx.o
 .text.cvmx_twsix_read_llc_reg
                0x0000000000000000       0x60 arch/mips/cpu/octeon/cvmx/libcvmx.o
 .text.octeon_i2c_lost_arb
                0x0000000000000000       0x44 arch/mips/cpu/octeon/cvmx/libcvmx.o
 .text.cvmx_twsix_stop
                0x0000000000000000       0x40 arch/mips/cpu/octeon/cvmx/libcvmx.o
 .text.cvmx_twsix_wait
                0x0000000000000000       0x70 arch/mips/cpu/octeon/cvmx/libcvmx.o
 .text.cvmx_twsix_unblock
                0x0000000000000000      0x124 arch/mips/cpu/octeon/cvmx/libcvmx.o
 .text.cvmx_twsix_start
                0x0000000000000000       0xa4 arch/mips/cpu/octeon/cvmx/libcvmx.o
 .text.cvmx_twsix_write_seg.constprop.1
                0x0000000000000000      0x120 arch/mips/cpu/octeon/cvmx/libcvmx.o
 .text.cvmx_twsix_read_ia
                0x0000000000000000      0x274 arch/mips/cpu/octeon/cvmx/libcvmx.o
 .text.cvmx_twsix_read
                0x0000000000000000      0x200 arch/mips/cpu/octeon/cvmx/libcvmx.o
 .text.cvmx_twsix_write
                0x0000000000000000      0x158 arch/mips/cpu/octeon/cvmx/libcvmx.o
 .text.cvmx_twsix_write_ia
                0x0000000000000000      0x274 arch/mips/cpu/octeon/cvmx/libcvmx.o
 .text.cvmx_twsix_read_ia_llc
                0x0000000000000000      0x208 arch/mips/cpu/octeon/cvmx/libcvmx.o
 .text.cvmx_twsix_write_ia_llc
                0x0000000000000000      0x104 arch/mips/cpu/octeon/cvmx/libcvmx.o
 .text.octeon_feature_init
                0x0000000000000000      0xe30 arch/mips/cpu/octeon/cvmx/libcvmx.o
 .text.cvmx_ptr_to_phys2
                0x0000000000000000       0xe0 arch/mips/cpu/octeon/cvmx/libcvmx.o
 .text.octeon_set_attr
                0x0000000000000000       0x30 arch/mips/cpu/octeon/cvmx/libcvmx.o
 .text.octeon_clear_attr
                0x0000000000000000       0x34 arch/mips/cpu/octeon/cvmx/libcvmx.o
 .text.octeon_attr_init
                0x0000000000000000       0x3c arch/mips/cpu/octeon/cvmx/libcvmx.o
 .text.octeon_has_attr
                0x0000000000000000       0x58 arch/mips/cpu/octeon/cvmx/libcvmx.o
 .text.octeon_model_get_string
                0x0000000000000000        0xc arch/mips/cpu/octeon/cvmx/libcvmx.o
 .text.__cvmx_qlm_get_mode_cn70xx
                0x0000000000000000      0x29c arch/mips/cpu/octeon/cvmx/libcvmx.o
 .text.cvmx_qlm_interface
                0x0000000000000000      0x238 arch/mips/cpu/octeon/cvmx/libcvmx.o
 .text.__cvmx_qlm_pcie_cfg_rxd_set_tweak
                0x0000000000000000       0x74 arch/mips/cpu/octeon/cvmx/libcvmx.o
 .text.cvmx_qlm_get_dlm_mode
                0x0000000000000000      0x16c arch/mips/cpu/octeon/cvmx/libcvmx.o
 .text.cvmx_qlm_get_mode_cn78xx
                0x0000000000000000      0x1e8 arch/mips/cpu/octeon/cvmx/libcvmx.o
 .text.__cvmx_qlm_get_mode_cn73xx
                0x0000000000000000      0x264 arch/mips/cpu/octeon/cvmx/libcvmx.o
 .text.cvmx_qlm_get_mode
                0x0000000000000000      0x36c arch/mips/cpu/octeon/cvmx/libcvmx.o
 .text.cvmx_qlm_display_registers
                0x0000000000000000       0xf8 arch/mips/cpu/octeon/cvmx/libcvmx.o
 .text.__cvmx_helper_errata_qlm_disable_2nd_order_cdr
                0x0000000000000000       0xa8 arch/mips/cpu/octeon/cvmx/libcvmx.o
 .rodata        0x0000000000000000       0x60 arch/mips/cpu/octeon/cvmx/libcvmx.o
 .rodata.__func__.131371
                0x0000000000000000       0x20 arch/mips/cpu/octeon/cvmx/libcvmx.o
 .rodata.__func__.130528
                0x0000000000000000       0x60 arch/mips/cpu/octeon/cvmx/libcvmx.o
 .rodata.__cvmx_fpa3_cnt_offset
                0x0000000000000000        0x4 arch/mips/cpu/octeon/cvmx/libcvmx.o
 .rodata.__func__.130524
                0x0000000000000000       0x48 arch/mips/cpu/octeon/cvmx/libcvmx.o
 .rodata.__func__.133450
                0x0000000000000000       0x20 arch/mips/cpu/octeon/cvmx/libcvmx.o
 .rodata.__func__.133438
                0x0000000000000000       0x20 arch/mips/cpu/octeon/cvmx/libcvmx.o
 .rodata.__func__.133386
                0x0000000000000000       0x18 arch/mips/cpu/octeon/cvmx/libcvmx.o
 .rodata.__func__.133364
                0x0000000000000000       0x18 arch/mips/cpu/octeon/cvmx/libcvmx.o
 .rodata.__func__.133467
                0x0000000000000000       0x20 arch/mips/cpu/octeon/cvmx/libcvmx.o
 .rodata.__func__.133487
                0x0000000000000000       0x20 arch/mips/cpu/octeon/cvmx/libcvmx.o
 .rodata.__func__.133500
                0x0000000000000000       0x18 arch/mips/cpu/octeon/cvmx/libcvmx.o
 .rodata.__func__.133414
                0x0000000000000000       0x18 arch/mips/cpu/octeon/cvmx/libcvmx.o
 .rodata.__func__.133509
                0x0000000000000000       0x18 arch/mips/cpu/octeon/cvmx/libcvmx.o
 .rodata.__func__.133516
                0x0000000000000000       0x18 arch/mips/cpu/octeon/cvmx/libcvmx.o
 .rodata.__func__.133535
                0x0000000000000000       0x18 arch/mips/cpu/octeon/cvmx/libcvmx.o
 .rodata.__func__.133553
                0x0000000000000000       0x28 arch/mips/cpu/octeon/cvmx/libcvmx.o
 .rodata.__func__.133562
                0x0000000000000000       0x18 arch/mips/cpu/octeon/cvmx/libcvmx.o
 .rodata.__func__.131074
                0x0000000000000000       0x18 arch/mips/cpu/octeon/cvmx/libcvmx.o
 .rodata.__func__.131090
                0x0000000000000000       0x18 arch/mips/cpu/octeon/cvmx/libcvmx.o
 .rodata.__func__.131098
                0x0000000000000000       0x18 arch/mips/cpu/octeon/cvmx/libcvmx.o
 .rodata.__func__.131105
                0x0000000000000000       0x18 arch/mips/cpu/octeon/cvmx/libcvmx.o
 .rodata.__func__.132464
                0x0000000000000000       0x20 arch/mips/cpu/octeon/cvmx/libcvmx.o
 .rodata.__func__.132494
                0x0000000000000000       0x20 arch/mips/cpu/octeon/cvmx/libcvmx.o
 .rodata.__func__.132513
                0x0000000000000000       0x28 arch/mips/cpu/octeon/cvmx/libcvmx.o
 .rodata.cvmx_helper_interface_get_mode
                0x0000000000000000       0xdc arch/mips/cpu/octeon/cvmx/libcvmx.o
 .rodata.cvmx_helper_interface_probe
                0x0000000000000000       0x4c arch/mips/cpu/octeon/cvmx/libcvmx.o
 .rodata.iface_ops_npi
                0x0000000000000000       0x20 arch/mips/cpu/octeon/cvmx/libcvmx.o
 .rodata.iface_ops_loop
                0x0000000000000000       0x20 arch/mips/cpu/octeon/cvmx/libcvmx.o
 .rodata.iface_ops_dis
                0x0000000000000000       0x20 arch/mips/cpu/octeon/cvmx/libcvmx.o
 .rodata.iface_ops_gmii
                0x0000000000000000       0x20 arch/mips/cpu/octeon/cvmx/libcvmx.o
 .rodata.iface_ops_xaui
                0x0000000000000000       0x20 arch/mips/cpu/octeon/cvmx/libcvmx.o
 .rodata.iface_ops_sgmii
                0x0000000000000000       0x20 arch/mips/cpu/octeon/cvmx/libcvmx.o
 .rodata.iface_ops_picmg
                0x0000000000000000       0x20 arch/mips/cpu/octeon/cvmx/libcvmx.o
 .rodata.iface_ops_spi
                0x0000000000000000       0x20 arch/mips/cpu/octeon/cvmx/libcvmx.o
 .rodata.iface_ops_rgmii
                0x0000000000000000       0x20 arch/mips/cpu/octeon/cvmx/libcvmx.o
 .rodata.iface_ops_qsgmii
                0x0000000000000000       0x20 arch/mips/cpu/octeon/cvmx/libcvmx.o
 .rodata.iface_ops_rxaui
                0x0000000000000000       0x20 arch/mips/cpu/octeon/cvmx/libcvmx.o
 .rodata.iface_ops_agl
                0x0000000000000000       0x20 arch/mips/cpu/octeon/cvmx/libcvmx.o
 .rodata.iface_ops_bgx_sgmii
                0x0000000000000000       0x20 arch/mips/cpu/octeon/cvmx/libcvmx.o
 .rodata.iface_ops_bgx_xaui
                0x0000000000000000       0x20 arch/mips/cpu/octeon/cvmx/libcvmx.o
 .rodata.iface_ops_bgx_xlaui
                0x0000000000000000       0x20 arch/mips/cpu/octeon/cvmx/libcvmx.o
 .rodata.iface_ops_bgx_xfi
                0x0000000000000000       0x20 arch/mips/cpu/octeon/cvmx/libcvmx.o
 .rodata.iface_ops_bgx_10G_KR
                0x0000000000000000       0x20 arch/mips/cpu/octeon/cvmx/libcvmx.o
 .rodata.iface_ops_bgx_40G_KR4
                0x0000000000000000       0x20 arch/mips/cpu/octeon/cvmx/libcvmx.o
 .rodata.iface_ops_bgx_rxaui
                0x0000000000000000       0x20 arch/mips/cpu/octeon/cvmx/libcvmx.o
 .rodata.iface_ops_ilk
                0x0000000000000000       0x20 arch/mips/cpu/octeon/cvmx/libcvmx.o
 .rodata.iface_ops_srio
                0x0000000000000000       0x20 arch/mips/cpu/octeon/cvmx/libcvmx.o
 .rodata.__func__.134370
                0x0000000000000000       0x20 arch/mips/cpu/octeon/cvmx/libcvmx.o
 .rodata.__func__.134366
                0x0000000000000000       0x28 arch/mips/cpu/octeon/cvmx/libcvmx.o
 .rodata.__func__.136736
                0x0000000000000000       0x18 arch/mips/cpu/octeon/cvmx/libcvmx.o
 .rodata.__cvmx_helper_bgx_enumerate
                0x0000000000000000       0xb8 arch/mips/cpu/octeon/cvmx/libcvmx.o
 .rodata.CSWTCH.136
                0x0000000000000000       0x10 arch/mips/cpu/octeon/cvmx/libcvmx.o
 .rodata.CSWTCH.137
                0x0000000000000000       0x10 arch/mips/cpu/octeon/cvmx/libcvmx.o
 .rodata.__func__.132806
                0x0000000000000000       0x20 arch/mips/cpu/octeon/cvmx/libcvmx.o
 .rodata.__func__.132951
                0x0000000000000000       0x20 arch/mips/cpu/octeon/cvmx/libcvmx.o
 .rodata.__get_broadcom_phy_link_state
                0x0000000000000000       0x1c arch/mips/cpu/octeon/cvmx/libcvmx.o
 .rodata.__cvmx_helper_board_interface_probe
                0x0000000000000000       0x78 arch/mips/cpu/octeon/cvmx/libcvmx.o
 .rodata.__func__.133186
                0x0000000000000000       0x20 arch/mips/cpu/octeon/cvmx/libcvmx.o
 .rodata.__func__.133167
                0x0000000000000000       0x20 arch/mips/cpu/octeon/cvmx/libcvmx.o
 .rodata.cvmx_helper_cfg_set_jabber_and_frame_max
                0x0000000000000000       0x38 arch/mips/cpu/octeon/cvmx/libcvmx.o
 .rodata.__func__.133998
                0x0000000000000000       0x20 arch/mips/cpu/octeon/cvmx/libcvmx.o
 .rodata.__func__.134021
                0x0000000000000000       0x18 arch/mips/cpu/octeon/cvmx/libcvmx.o
 .rodata.__func__.134014
                0x0000000000000000       0x18 arch/mips/cpu/octeon/cvmx/libcvmx.o
 .rodata.__func__.134319
                0x0000000000000000       0x20 arch/mips/cpu/octeon/cvmx/libcvmx.o
 .rodata.__func__.134205
                0x0000000000000000       0x40 arch/mips/cpu/octeon/cvmx/libcvmx.o
 .rodata.__func__.134217
                0x0000000000000000       0x20 arch/mips/cpu/octeon/cvmx/libcvmx.o
 .rodata.__func__.134213
                0x0000000000000000       0x28 arch/mips/cpu/octeon/cvmx/libcvmx.o
 .rodata.gpio_compat_list
                0x0000000000000000      0x1c0 arch/mips/cpu/octeon/cvmx/libcvmx.o
 .rodata.cvmx_helper_get_ipd_port
                0x0000000000000000       0x20 arch/mips/cpu/octeon/cvmx/libcvmx.o
 .rodata.CSWTCH.87
                0x0000000000000000       0x50 arch/mips/cpu/octeon/cvmx/libcvmx.o
 .rodata.ipd_port_map_68xx
                0x0000000000000000       0xb0 arch/mips/cpu/octeon/cvmx/libcvmx.o
 .rodata.ipd_port_map_78xx
                0x0000000000000000       0xb0 arch/mips/cpu/octeon/cvmx/libcvmx.o
 .rodata.ipd_port_map_73xx
                0x0000000000000000       0xb0 arch/mips/cpu/octeon/cvmx/libcvmx.o
 .rodata.ipd_port_map_75xx
                0x0000000000000000       0xb0 arch/mips/cpu/octeon/cvmx/libcvmx.o
 .rodata.__func__.136013
                0x0000000000000000       0x28 arch/mips/cpu/octeon/cvmx/libcvmx.o
 .rodata.debug  0x0000000000000000        0x1 arch/mips/cpu/octeon/cvmx/libcvmx.o
 .rodata.reg_names
                0x0000000000000000      0x400 arch/mips/cpu/octeon/cvmx/libcvmx.o
 .rodata.cause_names
                0x0000000000000000     0x1000 arch/mips/cpu/octeon/cvmx/libcvmx.o
 .rodata.cvmx_qlm_get_mode_cn78xx
                0x0000000000000000       0x28 arch/mips/cpu/octeon/cvmx/libcvmx.o
 .rodata.cvmx_qlm_get_mode
                0x0000000000000000       0x50 arch/mips/cpu/octeon/cvmx/libcvmx.o
 .rodata.CSWTCH.47
                0x0000000000000000        0x8 arch/mips/cpu/octeon/cvmx/libcvmx.o
 .rodata.CSWTCH.49
                0x0000000000000000        0x8 arch/mips/cpu/octeon/cvmx/libcvmx.o
 .rodata.CSWTCH.51
                0x0000000000000000        0x8 arch/mips/cpu/octeon/cvmx/libcvmx.o
 .eh_frame      0x0000000000000000     0x4144 arch/mips/cpu/octeon/cvmx/libcvmx.o
 .data          0x0000000000000000        0x0 arch/mips/cpu/octeon/cvmx/libcvmx.o
 .data.cvmx_rgmii_backpressure_dis
                0x0000000000000000        0x8 arch/mips/cpu/octeon/cvmx/libcvmx.o
 .data.cvmx_cfg_pko_port_map
                0x0000000000000000      0x300 arch/mips/cpu/octeon/cvmx/libcvmx.o
 .data.cvmx_pko_queue_table
                0x0000000000000000      0x200 arch/mips/cpu/octeon/cvmx/libcvmx.o
 .data.cvmx_cfg_port
                0x0000000000000000    0x37000 arch/mips/cpu/octeon/cvmx/libcvmx.o
 .data.cvmx_cfg_opts
                0x0000000000000000        0x8 arch/mips/cpu/octeon/cvmx/libcvmx.o
 .data.ipd2pko_port_cache
                0x0000000000000000     0x2000 arch/mips/cpu/octeon/cvmx/libcvmx.o
 .data.__cvmx_wqe_pool
                0x0000000000000000        0x1 arch/mips/cpu/octeon/cvmx/libcvmx.o
 .data.read_percpu_block
                0x0000000000000000        0x4 arch/mips/cpu/octeon/cvmx/libcvmx.o
 .bss           0x0000000000000000        0x0 arch/mips/cpu/octeon/cvmx/libcvmx.o
 .bss.cvmx_fpa1_pool_info
                0x0000000000000000      0x140 arch/mips/cpu/octeon/cvmx/libcvmx.o
 .bss.cvmx_fpa3_aura_info
                0x0000000000000000       0x10 arch/mips/cpu/octeon/cvmx/libcvmx.o
 .bss.cvmx_fpa3_pool_info
                0x0000000000000000       0x10 arch/mips/cpu/octeon/cvmx/libcvmx.o
 .bss.__cvmx_global_resources_addr
                0x0000000000000000        0x8 arch/mips/cpu/octeon/cvmx/libcvmx.o
 .bss.cvmx_override_ipd_port_setup
                0x0000000000000000        0x4 arch/mips/cpu/octeon/cvmx/libcvmx.o
 .bss.cvmx_interfaces
                0x0000000000000000      0x2c0 arch/mips/cpu/octeon/cvmx/libcvmx.o
 .bss.is_lmac_mask_set.132450
                0x0000000000000000        0x4 arch/mips/cpu/octeon/cvmx/libcvmx.o
 .bss.lmac_mask.132449
                0x0000000000000000       0x10 arch/mips/cpu/octeon/cvmx/libcvmx.o
 .bss.cvmx_override_board_link_get
                0x0000000000000000        0x4 arch/mips/cpu/octeon/cvmx/libcvmx.o
 .bss.fdt_addr.133176
                0x0000000000000000        0x4 arch/mips/cpu/octeon/cvmx/libcvmx.o
 .bss.fdt_ports_initialized.133219
                0x0000000000000000        0x4 arch/mips/cpu/octeon/cvmx/libcvmx.o
 .bss.fdt_addr.133237
                0x0000000000000000        0x4 arch/mips/cpu/octeon/cvmx/libcvmx.o
 .bss.fdt_addr.133128
                0x0000000000000000        0x4 arch/mips/cpu/octeon/cvmx/libcvmx.o
 .bss.qlm_switch_addr.133306
                0x0000000000000000        0x1 arch/mips/cpu/octeon/cvmx/libcvmx.o
 .bss.cvmx_import_app_config
                0x0000000000000000        0x4 arch/mips/cpu/octeon/cvmx/libcvmx.o
 .bss.__cvmx_cfg_pko_highest_queue
                0x0000000000000000        0x4 arch/mips/cpu/octeon/cvmx/libcvmx.o
 .bss.cvmx_cfg_max_pko_engines
                0x0000000000000000        0x4 arch/mips/cpu/octeon/cvmx/libcvmx.o
 .bss.queue_range_init
                0x0000000000000000        0x4 arch/mips/cpu/octeon/cvmx/libcvmx.o
 .bss.fdt_addr.134293
                0x0000000000000000        0x4 arch/mips/cpu/octeon/cvmx/libcvmx.o
 .bss.__cvmx_packet_short_ptr
                0x0000000000000000       0x20 arch/mips/cpu/octeon/cvmx/libcvmx.o
 .bss.cvmx_interrupt_in_isr
                0x0000000000000000        0x4 arch/mips/cpu/octeon/cvmx/libcvmx.o
 .bss.fdt_addr.132409
                0x0000000000000000        0x4 arch/mips/cpu/octeon/cvmx/libcvmx.o
 .bss.eccb      0x0000000000000000       0xd8 arch/mips/cpu/octeon/cvmx/libcvmx.o
 .bss.linux_mem32_offset
                0x0000000000000000        0x8 arch/mips/cpu/octeon/cvmx/libcvmx.o
 .bss.linux_mem32_wired
                0x0000000000000000        0x8 arch/mips/cpu/octeon/cvmx/libcvmx.o
 .bss.linux_mem32_max
                0x0000000000000000        0x8 arch/mips/cpu/octeon/cvmx/libcvmx.o
 .bss.linux_mem32_min
                0x0000000000000000        0x8 arch/mips/cpu/octeon/cvmx/libcvmx.o
 .bss.buffer.132503
                0x0000000000000000       0x20 arch/mips/cpu/octeon/cvmx/libcvmx.o
 .pdr           0x0000000000000000     0x3520 arch/mips/cpu/octeon/cvmx/libcvmx.o
 .note.GNU-stack
                0x0000000000000000        0x0 arch/mips/cpu/octeon/cvmx/libcvmx.o
 .reginfo       0x0000000000000000       0x18 arch/mips/cpu/octeon/libocteon.o
 .text          0x0000000000000000        0x0 arch/mips/cpu/octeon/libocteon.o
 .text.write_one_tlb
                0x0000000000000000       0x28 arch/mips/cpu/octeon/libocteon.o
 .text.flush_dcache_range
                0x0000000000000000       0x10 arch/mips/cpu/octeon/libocteon.o
 .text.invalidate_dcache_range
                0x0000000000000000        0x8 arch/mips/cpu/octeon/libocteon.o
 .text.configure_lmtdma_window
                0x0000000000000000       0x38 arch/mips/cpu/octeon/libocteon.o
 .text.cpu_eth_init
                0x0000000000000000       0x24 arch/mips/cpu/octeon/libocteon.o
 .text.cvmx_csr_db_decode
                0x0000000000000000        0xc arch/mips/cpu/octeon/libocteon.o
 .text.octeon_show_info
                0x0000000000000000       0x1c arch/mips/cpu/octeon/libocteon.o
 .text.octeon_led_str_write_std
                0x0000000000000000        0x8 arch/mips/cpu/octeon/libocteon.o
 .text.octeon_check_mem_errors
                0x0000000000000000      0x534 arch/mips/cpu/octeon/libocteon.o
 .text.octeon_check_nor_flash_enabled
                0x0000000000000000       0x68 arch/mips/cpu/octeon/libocteon.o
 .text.set_flash_clock
                0x0000000000000000      0x100 arch/mips/cpu/octeon/libocteon.o
 .text.validate_bootloader_header
                0x0000000000000000       0x4c arch/mips/cpu/octeon/libocteon.o
 .text.failsafe_scan
                0x0000000000000000       0x34 arch/mips/cpu/octeon/libocteon.o
 .text.octeon_get_io_clock_rate
                0x0000000000000000        0x8 arch/mips/cpu/octeon/libocteon.o
 .text.lookup_delay_psec
                0x0000000000000000       0x30 arch/mips/cpu/octeon/libocteon.o
 .text.validate_ddr3_rlevel_bitmask
                0x0000000000000000      0x1c0 arch/mips/cpu/octeon/libocteon.o
 .text.adjust_read_level_byte
                0x0000000000000000       0x4c arch/mips/cpu/octeon/libocteon.o
 .text.update_wlevel_rank_struct
                0x0000000000000000       0x74 arch/mips/cpu/octeon/libocteon.o
 .text.get_wlevel_rank_struct
                0x0000000000000000       0x74 arch/mips/cpu/octeon/libocteon.o
 .text.update_rlevel_rank_struct
                0x0000000000000000       0x74 arch/mips/cpu/octeon/libocteon.o
 .text.get_rlevel_rank_struct
                0x0000000000000000       0x74 arch/mips/cpu/octeon/libocteon.o
 .text.nonsequential_delays
                0x0000000000000000       0xac arch/mips/cpu/octeon/libocteon.o
 .text.roundup_ddr3_wlevel_bitmask
                0x0000000000000000       0x50 arch/mips/cpu/octeon/libocteon.o
 .text.is_dll_offset_enabled
                0x0000000000000000       0x34 arch/mips/cpu/octeon/libocteon.o
 .text.ddr_memory_preserved
                0x0000000000000000        0xc arch/mips/cpu/octeon/libocteon.o
 .text.ddr_print
                0x0000000000000000       0x44 arch/mips/cpu/octeon/libocteon.o
 .text.octeon_read_lmcx_ddr3_rlevel_dbg
                0x0000000000000000       0xe0 arch/mips/cpu/octeon/libocteon.o
 .text.octeon_read_lmcx_ddr3_wlevel_dbg
                0x0000000000000000       0xb0 arch/mips/cpu/octeon/libocteon.o
 .text.load_dll_offset
                0x0000000000000000      0x2bc arch/mips/cpu/octeon/libocteon.o
 .text.unlikely.cn78xx_lmc_dreset_init
                0x0000000000000000      0x14c arch/mips/cpu/octeon/libocteon.o
 .text.lookup_env_parameter
                0x0000000000000000       0xb0 arch/mips/cpu/octeon/libocteon.o
 .text.lookup_env_parameter_ull
                0x0000000000000000       0xa8 arch/mips/cpu/octeon/libocteon.o
 .text.read_spd
                0x0000000000000000       0xbc arch/mips/cpu/octeon/libocteon.o
 .text.report_ddr2_dimm
                0x0000000000000000      0x1a0 arch/mips/cpu/octeon/libocteon.o
 .text.validate_spd_checksum_ddr3
                0x0000000000000000      0x13c arch/mips/cpu/octeon/libocteon.o
 .text.getenv_wrapper
                0x0000000000000000      0x1a4 arch/mips/cpu/octeon/libocteon.o
 .text.test_dram_byte.isra.0
                0x0000000000000000      0x148 arch/mips/cpu/octeon/libocteon.o
 .text.auto_set_dll_offset
                0x0000000000000000      0x504 arch/mips/cpu/octeon/libocteon.o
 .text.octeon_ipd_delay_cycles.constprop.8
                0x0000000000000000       0x54 arch/mips/cpu/octeon/libocteon.o
 .text.report_ddr3_dimm.constprop.11
                0x0000000000000000      0x208 arch/mips/cpu/octeon/libocteon.o
 .text.pulse_gpio_pin.constprop.12
                0x0000000000000000       0x58 arch/mips/cpu/octeon/libocteon.o
 .text.validate_spd_checksum
                0x0000000000000000      0x244 arch/mips/cpu/octeon/libocteon.o
 .text.validate_dimm
                0x0000000000000000      0x1c4 arch/mips/cpu/octeon/libocteon.o
 .text.perform_ddr3_sequence
                0x0000000000000000      0x264 arch/mips/cpu/octeon/libocteon.o
 .text.perform_octeon3_ddr3_sequence
                0x0000000000000000      0x13c arch/mips/cpu/octeon/libocteon.o
 .text.perform_ddr3_init_sequence
                0x0000000000000000      0x208 arch/mips/cpu/octeon/libocteon.o
 .text.ddr4_mpr_read
                0x0000000000000000      0x150 arch/mips/cpu/octeon/libocteon.o
 .text.set_vref
                0x0000000000000000      0x164 arch/mips/cpu/octeon/libocteon.o
 .text.twsii_mcu_read
                0x0000000000000000        0x8 arch/mips/cpu/octeon/libocteon.o
 .text.initialize_ddr_clock
                0x0000000000000000     0x5948 arch/mips/cpu/octeon/libocteon.o
 .text.init_octeon_ddr3_interface.isra.3
                0x0000000000000000     0x6dec arch/mips/cpu/octeon/libocteon.o
 .text.init_octeon3_ddr3_interface.isra.4
                0x0000000000000000     0x8250 arch/mips/cpu/octeon/libocteon.o
 .text.measure_octeon_ddr_clock
                0x0000000000000000      0x348 arch/mips/cpu/octeon/libocteon.o
 .text.octeon_tlv_eeprom_get_next_tuple
                0x0000000000000000      0x128 arch/mips/cpu/octeon/libocteon.o
 .text.octeon_tlv_get_tuple_addr
                0x0000000000000000       0xa8 arch/mips/cpu/octeon/libocteon.o
 .text.octeon_ddr_initialize
                0x0000000000000000     0x3730 arch/mips/cpu/octeon/libocteon.o
 .text.lookup_ddr_config_structure
                0x0000000000000000      0xd2c arch/mips/cpu/octeon/libocteon.o
 .text.lookup_board_table_entry
                0x0000000000000000       0x48 arch/mips/cpu/octeon/libocteon.o
 .text.displayErrorRegC0_Icache.constprop.1
                0x0000000000000000       0x44 arch/mips/cpu/octeon/libocteon.o
 .text.displayErrorRegC0_cvmmem.constprop.2
                0x0000000000000000       0x40 arch/mips/cpu/octeon/libocteon.o
 .text.displayErrorReg_1_node.constprop.3
                0x0000000000000000       0x38 arch/mips/cpu/octeon/libocteon.o
 .text.displayErrorReg_1.constprop.4
                0x0000000000000000       0x40 arch/mips/cpu/octeon/libocteon.o
 .text.octeon_bist_78xx
                0x0000000000000000      0x8bc arch/mips/cpu/octeon/libocteon.o
 .text.octeon_bist_70XX
                0x0000000000000000      0x54c arch/mips/cpu/octeon/libocteon.o
 .text.octeon_bist_6XXX_usb
                0x0000000000000000       0xd4 arch/mips/cpu/octeon/libocteon.o
 .text.octeon_bist_6XXX
                0x0000000000000000      0xd60 arch/mips/cpu/octeon/libocteon.o
 .text.octeon_bist
                0x0000000000000000      0x9e4 arch/mips/cpu/octeon/libocteon.o
 .text.octeon_get_cycles
                0x0000000000000000        0xc arch/mips/cpu/octeon/libocteon.o
 .text.octeon_delay_cycles
                0x0000000000000000       0x20 arch/mips/cpu/octeon/libocteon.o
 .text.octeon_get_cop0_status
                0x0000000000000000        0xc arch/mips/cpu/octeon/libocteon.o
 .text.cvmx_set_cycle
                0x0000000000000000        0x8 arch/mips/cpu/octeon/libocteon.o
 .text.octeon_bzero64_pfs
                0x0000000000000000       0xf8 arch/mips/cpu/octeon/libocteon.o
 .text.fill_tad_corecount
                0x0000000000000000      0x110 arch/mips/cpu/octeon/libocteon.o
 .text.get_core_pattern
                0x0000000000000000       0x40 arch/mips/cpu/octeon/libocteon.o
 .text.get_logical_coremask
                0x0000000000000000        0x8 arch/mips/cpu/octeon/libocteon.o
 .text.octeon_check_mem_load_range
                0x0000000000000000       0xdc arch/mips/cpu/octeon/libocteon.o
 .text.octeon_dram_clear_ecc_errors
                0x0000000000000000      0x518 arch/mips/cpu/octeon/libocteon.o
 .text.octeon_clear_mem_pfs
                0x0000000000000000       0xa4 arch/mips/cpu/octeon/libocteon.o
 .text.reset_timer_masked
                0x0000000000000000        0x8 arch/mips/cpu/octeon/libocteon.o
 .text.reset_timer
                0x0000000000000000       0x40 arch/mips/cpu/octeon/libocteon.o
 .text.get_timer_masked
                0x0000000000000000        0x8 arch/mips/cpu/octeon/libocteon.o
 .text.set_timer
                0x0000000000000000       0x40 arch/mips/cpu/octeon/libocteon.o
 .text.udelay_masked
                0x0000000000000000        0x8 arch/mips/cpu/octeon/libocteon.o
 .text.__board_fixup_fdt
                0x0000000000000000        0x8 arch/mips/cpu/octeon/libocteon.o
 .text.octeon_fdt_find_phy
                0x0000000000000000      0x184 arch/mips/cpu/octeon/libocteon.o
 .text.octeon_fdt_compat_vendor
                0x0000000000000000       0xd4 arch/mips/cpu/octeon/libocteon.o
 .text.octeon_fdt_get_soc_node
                0x0000000000000000       0xa8 arch/mips/cpu/octeon/libocteon.o
 .text.setup_se_app_boot_info
                0x0000000000000000       0xa4 arch/mips/cpu/octeon/libocteon.o
 .text.alloc_mem_list_entry
                0x0000000000000000       0x28 arch/mips/cpu/octeon/libocteon.o
 .text.print_oct_tlb_entry
                0x0000000000000000       0x28 arch/mips/cpu/octeon/libocteon.o
 .text.print_boot_block
                0x0000000000000000       0x28 arch/mips/cpu/octeon/libocteon.o
 .text.print_boot_array
                0x0000000000000000      0x264 arch/mips/cpu/octeon/libocteon.o
 .text.print_tlb_array
                0x0000000000000000      0x110 arch/mips/cpu/octeon/libocteon.o
 .text.get_tlb_mapping_size
                0x0000000000000000       0x24 arch/mips/cpu/octeon/libocteon.o
 .text.load_elf_additional_cores
                0x0000000000000000      0x718 arch/mips/cpu/octeon/libocteon.o
 .text.do_bootloader_update_nor
                0x0000000000000000       0x24 arch/mips/cpu/octeon/libocteon.o
 .text.elf32_entry
                0x0000000000000000        0x8 arch/mips/cpu/octeon/libocteon.o
 .text.sha1_csum
                0x0000000000000000       0x6c arch/mips/cpu/octeon/libocteon.o
 .text.sha1_hmac
                0x0000000000000000      0x168 arch/mips/cpu/octeon/libocteon.o
 .text.sha1_self_test
                0x0000000000000000        0x8 arch/mips/cpu/octeon/libocteon.o
 .text.sha256_update.part.0
                0x0000000000000000      0x20c arch/mips/cpu/octeon/libocteon.o
 .text.sha256_starts
                0x0000000000000000       0x6c arch/mips/cpu/octeon/libocteon.o
 .text.sha256_update
                0x0000000000000000       0x18 arch/mips/cpu/octeon/libocteon.o
 .text.sha256_finish
                0x0000000000000000      0x1d4 arch/mips/cpu/octeon/libocteon.o
 .text.sha256_csum_wd
                0x0000000000000000       0x6c arch/mips/cpu/octeon/libocteon.o
 .text.octeon_init_qlm
                0x0000000000000000      0x144 arch/mips/cpu/octeon/libocteon.o
 .rodata.update_wlevel_rank_struct
                0x0000000000000000       0x24 arch/mips/cpu/octeon/libocteon.o
 .rodata.get_wlevel_rank_struct
                0x0000000000000000       0x24 arch/mips/cpu/octeon/libocteon.o
 .rodata.update_rlevel_rank_struct
                0x0000000000000000       0x24 arch/mips/cpu/octeon/libocteon.o
 .rodata.get_rlevel_rank_struct
                0x0000000000000000       0x24 arch/mips/cpu/octeon/libocteon.o
 .rodata.octeon_board_ddr_config_table
                0x0000000000000000     0x1990 arch/mips/cpu/octeon/libocteon.o
 .rodata.disable_odt_config
                0x0000000000000000       0xe0 arch/mips/cpu/octeon/libocteon.o
 .rodata._en.134123
                0x0000000000000000       0x18 arch/mips/cpu/octeon/libocteon.o
 .rodata._en.134160
                0x0000000000000000       0x18 arch/mips/cpu/octeon/libocteon.o
 .rodata._en.134199
                0x0000000000000000       0x20 arch/mips/cpu/octeon/libocteon.o
 .rodata._en.134234
                0x0000000000000000       0x20 arch/mips/cpu/octeon/libocteon.o
 .rodata._en.134273
                0x0000000000000000       0x28 arch/mips/cpu/octeon/libocteon.o
 .rodata._en.134323
                0x0000000000000000       0x28 arch/mips/cpu/octeon/libocteon.o
 .rodata.rtt_nom_ohms.133777
                0x0000000000000000        0x8 arch/mips/cpu/octeon/libocteon.o
 .rodata.rtt_wr_ohms.133778
                0x0000000000000000        0x8 arch/mips/cpu/octeon/libocteon.o
 .rodata.dic_ohms.133779
                0x0000000000000000        0x8 arch/mips/cpu/octeon/libocteon.o
 .rodata.strength_str.133803
                0x0000000000000000       0x20 arch/mips/cpu/octeon/libocteon.o
 .rodata.rtt_nom_table.133865
                0x0000000000000000        0x8 arch/mips/cpu/octeon/libocteon.o
 .rodata.rtt_nom_ohms.133864
                0x0000000000000000        0x8 arch/mips/cpu/octeon/libocteon.o
 .rodata.rodt_ohms.133863
                0x0000000000000000        0x8 arch/mips/cpu/octeon/libocteon.o
 .rodata.rtt_wr_ohms.133866
                0x0000000000000000        0x8 arch/mips/cpu/octeon/libocteon.o
 .rodata.dic_ohms.133867
                0x0000000000000000        0x8 arch/mips/cpu/octeon/libocteon.o
 .rodata.wl_status_strings.133990
                0x0000000000000000       0x10 arch/mips/cpu/octeon/libocteon.o
 .rodata.__func__.134043
                0x0000000000000000       0x20 arch/mips/cpu/octeon/libocteon.o
 .rodata.dimm_types.132396
                0x0000000000000000       0x30 arch/mips/cpu/octeon/libocteon.o
 .rodata.__func__.132935
                0x0000000000000000       0x10 arch/mips/cpu/octeon/libocteon.o
 .rodata.__func__.132955
                0x0000000000000000       0x18 arch/mips/cpu/octeon/libocteon.o
 .rodata.wl_status_strings.133480
                0x0000000000000000       0x10 arch/mips/cpu/octeon/libocteon.o
 .rodata.__func__.133570
                0x0000000000000000       0x20 arch/mips/cpu/octeon/libocteon.o
 .rodata.dimm_types.132416
                0x0000000000000000       0x40 arch/mips/cpu/octeon/libocteon.o
 .rodata._subfield_b.132435
                0x0000000000000000       0x10 arch/mips/cpu/octeon/libocteon.o
 .rodata._cs_mask_interface_wide.132770
                0x0000000000000000        0x8 arch/mips/cpu/octeon/libocteon.o
 .rodata._cs_mask_interface_narrow.132771
                0x0000000000000000        0x8 arch/mips/cpu/octeon/libocteon.o
 .rodata._refresh.132443
                0x0000000000000000       0x18 arch/mips/cpu/octeon/libocteon.o
 .rodata._subfield_b.132439
                0x0000000000000000        0x8 arch/mips/cpu/octeon/libocteon.o
 .rodata._subfield_b.132448
                0x0000000000000000        0x8 arch/mips/cpu/octeon/libocteon.o
 .rodata._params.132469
                0x0000000000000000       0x40 arch/mips/cpu/octeon/libocteon.o
 .rodata.row_lsb_table.132479
                0x0000000000000000       0x20 arch/mips/cpu/octeon/libocteon.o
 .rodata.pbank_lsb_table.132487
                0x0000000000000000       0x28 arch/mips/cpu/octeon/libocteon.o
 .rodata.__func__.132512
                0x0000000000000000       0x20 arch/mips/cpu/octeon/libocteon.o
 .rodata.__func__.132856
                0x0000000000000000       0x18 arch/mips/cpu/octeon/libocteon.o
 .rodata.__func__.132498
                0x0000000000000000       0x20 arch/mips/cpu/octeon/libocteon.o
 .rodata.sha256_padding
                0x0000000000000000       0x40 arch/mips/cpu/octeon/libocteon.o
 .eh_frame      0x0000000000000000     0x292c arch/mips/cpu/octeon/libocteon.o
 .data          0x0000000000000000        0x0 arch/mips/cpu/octeon/libocteon.o
 .data.ddr4_impedence_values
                0x0000000000000000       0x18 arch/mips/cpu/octeon/libocteon.o
 .data.ddr3_impedence_values
                0x0000000000000000       0x18 arch/mips/cpu/octeon/libocteon.o
 .data.ddr4_rodt_ohms
                0x0000000000000000        0x8 arch/mips/cpu/octeon/libocteon.o
 .data.ddr4_rtt_nom_ohms
                0x0000000000000000        0x8 arch/mips/cpu/octeon/libocteon.o
 .data.ddr4_rtt_nom_table
                0x0000000000000000        0x8 arch/mips/cpu/octeon/libocteon.o
 .data.ddr4_rtt_wr_ohms
                0x0000000000000000        0x8 arch/mips/cpu/octeon/libocteon.o
 .data.ddr4_dic_ohms
                0x0000000000000000        0x8 arch/mips/cpu/octeon/libocteon.o
 .data.ddr4_drive_strength
                0x0000000000000000       0x20 arch/mips/cpu/octeon/libocteon.o
 .data.ddr3_rodt_ohms
                0x0000000000000000        0x8 arch/mips/cpu/octeon/libocteon.o
 .data.ddr3_rtt_nom_ohms
                0x0000000000000000        0x8 arch/mips/cpu/octeon/libocteon.o
 .data.ddr3_rtt_nom_table
                0x0000000000000000        0x8 arch/mips/cpu/octeon/libocteon.o
 .data.ddr3_rtt_wr_ohms
                0x0000000000000000        0x8 arch/mips/cpu/octeon/libocteon.o
 .data.ddr3_dic_ohms
                0x0000000000000000        0x8 arch/mips/cpu/octeon/libocteon.o
 .data.ddr3_drive_strength
                0x0000000000000000       0x20 arch/mips/cpu/octeon/libocteon.o
 .bss           0x0000000000000000        0x0 arch/mips/cpu/octeon/libocteon.o
 .bss.configured_pin.132284
                0x0000000000000000        0x4 arch/mips/cpu/octeon/libocteon.o
 .pdr           0x0000000000000000     0x22e0 arch/mips/cpu/octeon/libocteon.o
 .note.GNU-stack
                0x0000000000000000        0x0 arch/mips/cpu/octeon/libocteon.o
 .reginfo       0x0000000000000000       0x18 arch/mips/lib/libmips.o
 .text          0x0000000000000000        0x0 arch/mips/lib/libmips.o
 .text.__board_early_init_f
                0x0000000000000000        0x8 arch/mips/lib/libmips.o
 .text.__board_fdt_init_f
                0x0000000000000000       0x20 arch/mips/lib/libmips.o
 .text.__board_fdt_get_limits
                0x0000000000000000       0x1c arch/mips/lib/libmips.o
 .text.board_net_preinit
                0x0000000000000000        0x8 arch/mips/lib/libmips.o
 .text.board_net_postinit
                0x0000000000000000        0x8 arch/mips/lib/libmips.o
 .rodata.mips_io_port_base
                0x0000000000000000        0x4 arch/mips/lib/libmips.o
 .eh_frame      0x0000000000000000      0x250 arch/mips/lib/libmips.o
 .data          0x0000000000000000        0x0 arch/mips/lib/libmips.o
 .bss           0x0000000000000000        0x0 arch/mips/lib/libmips.o
 .pdr           0x0000000000000000      0x260 arch/mips/lib/libmips.o
 .note.GNU-stack
                0x0000000000000000        0x0 arch/mips/lib/libmips.o
 .reginfo       0x0000000000000000       0x18 board/octeon/common/libocteon.o
 .text          0x0000000000000000        0x0 board/octeon/common/libocteon.o
 .text.checkboard
                0x0000000000000000        0x8 board/octeon/common/libocteon.o
 .text.board_usb_preinit
                0x0000000000000000        0x8 board/octeon/common/libocteon.o
 .text.board_usb_postinit
                0x0000000000000000        0x8 board/octeon/common/libocteon.o
 .text.__octeon_board_create_random_mac_addr
                0x0000000000000000       0x38 board/octeon/common/libocteon.o
 .text.__octeon_board_get_mac_addr
                0x0000000000000000        0x8 board/octeon/common/libocteon.o
 .text.__octeon_board_get_clock_info
                0x0000000000000000       0x20 board/octeon/common/libocteon.o
 .text.__octeon_board_get_descriptor
                0x0000000000000000       0xdc board/octeon/common/libocteon.o
 .text.__octeon_led_str_write
                0x0000000000000000        0x8 board/octeon/common/libocteon.o
 .text.__board_mdio_init
                0x0000000000000000        0x8 board/octeon/common/libocteon.o
 .text.octeon_led_str_write
                0x0000000000000000        0x8 board/octeon/common/libocteon.o
 .text.octeon_boot_bus_add_fdt_handler
                0x0000000000000000       0xac board/octeon/common/libocteon.o
 .text.octeon_add_user_boot_bus_fdt_devices
                0x0000000000000000        0x8 board/octeon/common/libocteon.o
 .text.boot_bus_get_handler
                0x0000000000000000       0xac board/octeon/common/libocteon.o
 .text.__boot_bus_time_encode
                0x0000000000000000       0xc0 board/octeon/common/libocteon.o
 .text.octeon_boot_bus_board_init
                0x0000000000000000        0x8 board/octeon/common/libocteon.o
 .text.octeon_boot_bus_board_late_init
                0x0000000000000000        0x8 board/octeon/common/libocteon.o
 .text.__octeon_boot_bus_get_property_node
                0x0000000000000000       0xa4 board/octeon/common/libocteon.o
 .text.__octeon_boot_bus_get_property
                0x0000000000000000       0xb8 board/octeon/common/libocteon.o
 .text.__octeon_boot_bus_get_fdt_info
                0x0000000000000000      0x5ac board/octeon/common/libocteon.o
 .text.__octeon_boot_bus_generic_init
                0x0000000000000000      0x248 board/octeon/common/libocteon.o
 .text.octeon_boot_bus_get_fdt_bus_width
                0x0000000000000000       0x48 board/octeon/common/libocteon.o
 .text.octeon_boot_bus_get_fdt_ale_mode
                0x0000000000000000       0x48 board/octeon/common/libocteon.o
 .text.__octeon_boot_bus_get_dev_info
                0x0000000000000000       0xf8 board/octeon/common/libocteon.o
 .text.__octeon_boot_bus_init
                0x0000000000000000       0xe4 board/octeon/common/libocteon.o
 .text.octeon_boot_bus_board_post_init
                0x0000000000000000        0x8 board/octeon/common/libocteon.o
 .text.__octeon_boot_bus_late_init
                0x0000000000000000      0x198 board/octeon/common/libocteon.o
 .text.octeon_board_post_phy_init
                0x0000000000000000        0x8 board/octeon/common/libocteon.o
 .text.octeon_board_phy_init
                0x0000000000000000      0x2c4 board/octeon/common/libocteon.o
 .rodata.__octeon_boot_bus_get_fdt_info
                0x0000000000000000       0x44 board/octeon/common/libocteon.o
 .rodata.__func__.132105
                0x0000000000000000       0x20 board/octeon/common/libocteon.o
 .rodata.__func__.133048
                0x0000000000000000       0x18 board/octeon/common/libocteon.o
 .eh_frame      0x0000000000000000      0x45c board/octeon/common/libocteon.o
 .data          0x0000000000000000        0x0 board/octeon/common/libocteon.o
 .data.fdt_prop_to_str
                0x0000000000000000       0xd0 board/octeon/common/libocteon.o
 .data.psram_compat.132145
                0x0000000000000000       0x10 board/octeon/common/libocteon.o
 .bss           0x0000000000000000        0x0 board/octeon/common/libocteon.o
 .bss.bootbus_handlers
                0x0000000000000000       0x18 board/octeon/common/libocteon.o
 .pdr           0x0000000000000000      0x400 board/octeon/common/libocteon.o
 .note.GNU-stack
                0x0000000000000000        0x0 board/octeon/common/libocteon.o
 .reginfo       0x0000000000000000       0x18 common/libcommon.o
 .text          0x0000000000000000        0x0 common/libcommon.o
 .text.do_go_exec
                0x0000000000000000       0x48 common/libcommon.o
 .text.__arch_preboot_os
                0x0000000000000000        0x8 common/libcommon.o
 .text.eeprom_probe
                0x0000000000000000       0x10 common/libcommon.o
 .text.eeprom_init
                0x0000000000000000        0x8 common/libcommon.o
 .text.ftstc    0x0000000000000000       0x1c common/libcommon.o
 .text.fputc    0x0000000000000000       0x1c common/libcommon.o
 .text.dbg      0x0000000000000000       0x28 common/libcommon.o
 .text.stdio_print_current_devices
                0x0000000000000000       0xc0 common/libcommon.o
 .text.cfree    0x0000000000000000        0x8 common/libcommon.o
 .text.memalign
                0x0000000000000000      0x154 common/libcommon.o
 .text.pvalloc  0x0000000000000000       0x10 common/libcommon.o
 .text.valloc   0x0000000000000000        0xc common/libcommon.o
 .text.malloc_usable_size
                0x0000000000000000       0x50 common/libcommon.o
 .text.mallopt  0x0000000000000000       0x7c common/libcommon.o
 .text.of_bus_default_map
                0x0000000000000000       0xa4 common/libcommon.o
 .text.of_bus_default_count_cells
                0x0000000000000000       0xac common/libcommon.o
 .text.of_bus_default_translate
                0x0000000000000000       0xb0 common/libcommon.o
 .text.fdt_getprop_u32_default
                0x0000000000000000       0x60 common/libcommon.o
 .text.fdt_find_and_setprop
                0x0000000000000000       0xc4 common/libcommon.o
 .text.do_fixup_by_path
                0x0000000000000000       0x64 common/libcommon.o
 .text.do_fixup_by_path_u32
                0x0000000000000000       0x28 common/libcommon.o
 .text.do_fixup_by_prop
                0x0000000000000000       0xdc common/libcommon.o
 .text.do_fixup_by_prop_u32
                0x0000000000000000       0x28 common/libcommon.o
 .text.do_fixup_by_compat
                0x0000000000000000       0xd0 common/libcommon.o
 .text.do_fixup_by_compat_u32
                0x0000000000000000       0x28 common/libcommon.o
 .text.fdt_fixup_ethernet
                0x0000000000000000      0x180 common/libcommon.o
 .text.fdt_increase_size
                0x0000000000000000       0x10 common/libcommon.o
 .text.fdt_del_node_and_alias
                0x0000000000000000       0x70 common/libcommon.o
 .text.fdt_translate_address
                0x0000000000000000      0x2e8 common/libcommon.o
 .text.fdt_node_offset_by_compat_reg
                0x0000000000000000       0xbc common/libcommon.o
 .text.fdt_alloc_phandle
                0x0000000000000000       0x78 common/libcommon.o
 .text.fdt_set_phandle
                0x0000000000000000       0x74 common/libcommon.o
 .text.fdt_create_phandle
                0x0000000000000000       0x8c common/libcommon.o
 .text.fdt_set_node_status
                0x0000000000000000      0x11c common/libcommon.o
 .text.fdt_set_status_by_alias
                0x0000000000000000       0x3c common/libcommon.o
 .text.fdt_verify_alias_address
                0x0000000000000000       0xf8 common/libcommon.o
 .text.fdt_get_base_address
                0x0000000000000000       0xa0 common/libcommon.o
 .text.hash_block
                0x0000000000000000       0x8c common/libcommon.o
 .text.ft_verify_fdt
                0x0000000000000000        0x8 common/libcommon.o
 .text.arch_fixup_memory_node
                0x0000000000000000        0x8 common/libcommon.o
 .text.image_setup_libfdt
                0x0000000000000000       0xf4 common/libcommon.o
 .text.fit_set_timestamp
                0x0000000000000000       0x98 common/libcommon.o
 .text.fit_conf_find_compat
                0x0000000000000000      0x1e8 common/libcommon.o
 .text.image_setup_linux
                0x0000000000000000       0x70 common/libcommon.o
 .text.iomux_printdevs
                0x0000000000000000       0x88 common/libcommon.o
 .text.get_ram_size
                0x0000000000000000      0x118 common/libcommon.o
 .text.legacy_miiphy_read
                0x0000000000000000       0x3c common/libcommon.o
 .text.legacy_miiphy_write
                0x0000000000000000       0x1c common/libcommon.o
 .text.miiphy_init
                0x0000000000000000       0x1c common/libcommon.o
 .text.mdio_alloc
                0x0000000000000000       0x48 common/libcommon.o
 .text.miiphy_register
                0x0000000000000000      0x148 common/libcommon.o
 .text.mdio_register
                0x0000000000000000       0xa0 common/libcommon.o
 .text.mdio_list_devices
                0x0000000000000000       0xe4 common/libcommon.o
 .text.mdio_get_current_dev
                0x0000000000000000        0xc common/libcommon.o
 .text.mdio_phydev_for_ethname
                0x0000000000000000       0xc0 common/libcommon.o
 .text.miiphy_reset
                0x0000000000000000       0xc8 common/libcommon.o
 .text.__splash_screen_prepare
                0x0000000000000000        0x8 common/libcommon.o
 .rodata.version_string
                0x0000000000000000       0x28 common/libcommon.o
 .rodata.__FUNCTION__.4708
                0x0000000000000000       0x18 common/libcommon.o
 .rodata.__FUNCTION__.4884
                0x0000000000000000       0x10 common/libcommon.o
 .eh_frame      0x0000000000000000     0x39e4 common/libcommon.o
 .data          0x0000000000000000        0x0 common/libcommon.o
 .data.mmap_threshold
                0x0000000000000000        0x4 common/libcommon.o
 .data.of_busses
                0x0000000000000000       0x18 common/libcommon.o
 .bss           0x0000000000000000        0x0 common/libcommon.o
 .bss.n_mmaps_max
                0x0000000000000000        0x4 common/libcommon.o
 .pdr           0x0000000000000000     0x2d40 common/libcommon.o
 .note.GNU-stack
                0x0000000000000000        0x0 common/libcommon.o
 .reginfo       0x0000000000000000       0x18 disk/libdisk.o
 .text          0x0000000000000000        0x0 disk/libdisk.o
 .text.get_partition_info
                0x0000000000000000        0x8 disk/libdisk.o
 .text.get_device
                0x0000000000000000       0x7c disk/libdisk.o
 .text.get_device_and_partition
                0x0000000000000000      0x338 disk/libdisk.o
 .rodata.str1.8
                0x0000000000000000      0x170 disk/libdisk.o
 .eh_frame      0x0000000000000000       0xa0 disk/libdisk.o
 .data          0x0000000000000000        0x0 disk/libdisk.o
 .bss           0x0000000000000000        0x0 disk/libdisk.o
 .pdr           0x0000000000000000       0x80 disk/libdisk.o
 .note.GNU-stack
                0x0000000000000000        0x0 disk/libdisk.o
 .reginfo       0x0000000000000000       0x18 drivers/gpio/libgpio.o
 .text          0x0000000000000000        0x0 drivers/gpio/libgpio.o
 .text.gpio_toggle_value
                0x0000000000000000       0x88 drivers/gpio/libgpio.o
 .text.gpio_set_value
                0x0000000000000000       0x78 drivers/gpio/libgpio.o
 .eh_frame      0x0000000000000000      0x120 drivers/gpio/libgpio.o
 .data          0x0000000000000000        0x0 drivers/gpio/libgpio.o
 .bss           0x0000000000000000        0x0 drivers/gpio/libgpio.o
 .pdr           0x0000000000000000      0x100 drivers/gpio/libgpio.o
 .note.GNU-stack
                0x0000000000000000        0x0 drivers/gpio/libgpio.o
 .reginfo       0x0000000000000000       0x18 drivers/i2c/libi2c.o
 .text          0x0000000000000000        0x0 drivers/i2c/libi2c.o
 .text.octeon_i2c_set_slave_address
                0x0000000000000000       0x54 drivers/i2c/libi2c.o
 .text.octeon_i2c_hlc_enable
                0x0000000000000000       0x5c drivers/i2c/libi2c.o
 .text.octeon_i2c_reg_addr_to_bus
                0x0000000000000000       0x5c drivers/i2c/libi2c.o
 .text.i2c_set_stop_delay
                0x0000000000000000       0x54 drivers/i2c/libi2c.o
 .text.i2c_get_stop_delay
                0x0000000000000000       0x40 drivers/i2c/libi2c.o
 .text.init_twsi_bus
                0x0000000000000000       0x20 drivers/i2c/libi2c.o
 .text.i2c_reloc_fixup
                0x0000000000000000        0x8 drivers/i2c/libi2c.o
 .text.__def_i2c_init_board
                0x0000000000000000        0x8 drivers/i2c/libi2c.o
 .text.i2c_reg_read
                0x0000000000000000       0x28 drivers/i2c/libi2c.o
 .text.i2c_reg_write
                0x0000000000000000       0x28 drivers/i2c/libi2c.o
 .rodata.__func__.131475
                0x0000000000000000       0x20 drivers/i2c/libi2c.o
 .eh_frame      0x0000000000000000      0x580 drivers/i2c/libi2c.o
 .data          0x0000000000000000        0x0 drivers/i2c/libi2c.o
 .bss           0x0000000000000000        0x0 drivers/i2c/libi2c.o
 .pdr           0x0000000000000000      0x4e0 drivers/i2c/libi2c.o
 .note.GNU-stack
                0x0000000000000000        0x0 drivers/i2c/libi2c.o
 .reginfo       0x0000000000000000       0x18 drivers/input/libinput.o
 .text          0x0000000000000000        0x0 drivers/input/libinput.o
 .text.input_tstc
                0x0000000000000000       0x58 drivers/input/libinput.o
 .text.input_getc
                0x0000000000000000       0x64 drivers/input/libinput.o
 .text.input_send_keycodes
                0x0000000000000000      0x458 drivers/input/libinput.o
 .text.input_add_table
                0x0000000000000000       0x40 drivers/input/libinput.o
 .text.input_set_delays
                0x0000000000000000        0xc drivers/input/libinput.o
 .text.input_init
                0x0000000000000000       0xa8 drivers/input/libinput.o
 .text.input_stdio_register
                0x0000000000000000       0x88 drivers/input/libinput.o
 .text.create_keymap
                0x0000000000000000       0xbc drivers/input/libinput.o
 .text.key_matrix_decode
                0x0000000000000000      0x10c drivers/input/libinput.o
 .text.key_matrix_decode_fdt
                0x0000000000000000       0xd8 drivers/input/libinput.o
 .text.key_matrix_init
                0x0000000000000000       0x68 drivers/input/libinput.o
 .rodata.str1.8
                0x0000000000000000       0x48 drivers/input/libinput.o
 .rodata.CSWTCH.29
                0x0000000000000000       0x10 drivers/input/libinput.o
 .rodata.kbd_to_ansi364
                0x0000000000000000       0x20 drivers/input/libinput.o
 .rodata.kbd_plain_xlate
                0x0000000000000000       0x68 drivers/input/libinput.o
 .eh_frame      0x0000000000000000      0x1b8 drivers/input/libinput.o
 .data          0x0000000000000000        0x0 drivers/input/libinput.o
 .data.kbd_shift_xlate
                0x0000000000000000       0x68 drivers/input/libinput.o
 .data.kbd_ctrl_xlate
                0x0000000000000000       0x68 drivers/input/libinput.o
 .bss           0x0000000000000000        0x0 drivers/input/libinput.o
 .comment       0x0000000000000000       0x6c drivers/input/libinput.o
 .pdr           0x0000000000000000      0x160 drivers/input/libinput.o
 .mdebug.abiN32
                0x0000000000000000        0x0 drivers/input/libinput.o
 .note.GNU-stack
                0x0000000000000000        0x0 drivers/input/libinput.o
 .debug_aranges
                0x0000000000000000       0x88 drivers/input/libinput.o
 .debug_info    0x0000000000000000     0x1bf4 drivers/input/libinput.o
 .debug_abbrev  0x0000000000000000      0x67f drivers/input/libinput.o
 .debug_line    0x0000000000000000      0x59a drivers/input/libinput.o
 .debug_str     0x0000000000000000      0xb85 drivers/input/libinput.o
 .debug_loc     0x0000000000000000      0xf7e drivers/input/libinput.o
 .debug_ranges  0x0000000000000000      0x220 drivers/input/libinput.o
 .gnu.attributes
                0x0000000000000000       0x10 drivers/input/libinput.o
 .reginfo       0x0000000000000000       0x18 drivers/pcmcia/libpcmcia.o
 .text          0x0000000000000000        0x0 drivers/pcmcia/libpcmcia.o
 .data          0x0000000000000000        0x0 drivers/pcmcia/libpcmcia.o
 .bss           0x0000000000000000        0x0 drivers/pcmcia/libpcmcia.o
 .comment       0x0000000000000000       0x6c drivers/pcmcia/libpcmcia.o
 .pdr           0x0000000000000000        0x0 drivers/pcmcia/libpcmcia.o
 .mdebug.abiN32
                0x0000000000000000        0x0 drivers/pcmcia/libpcmcia.o
 .note.GNU-stack
                0x0000000000000000        0x0 drivers/pcmcia/libpcmcia.o
 .debug_aranges
                0x0000000000000000       0x30 drivers/pcmcia/libpcmcia.o
 .debug_info    0x0000000000000000      0x732 drivers/pcmcia/libpcmcia.o
 .debug_abbrev  0x0000000000000000      0x1c2 drivers/pcmcia/libpcmcia.o
 .debug_line    0x0000000000000000      0x281 drivers/pcmcia/libpcmcia.o
 .debug_str     0x0000000000000000      0x5f6 drivers/pcmcia/libpcmcia.o
 .gnu.attributes
                0x0000000000000000       0x10 drivers/pcmcia/libpcmcia.o
 .reginfo       0x0000000000000000       0x18 drivers/rtc/librtc.o
 .text          0x0000000000000000        0x0 drivers/rtc/librtc.o
 .text.mktime   0x0000000000000000       0xa0 drivers/rtc/librtc.o
 .eh_frame      0x0000000000000000       0x68 drivers/rtc/librtc.o
 .data          0x0000000000000000        0x0 drivers/rtc/librtc.o
 .bss           0x0000000000000000        0x0 drivers/rtc/librtc.o
 .pdr           0x0000000000000000       0x60 drivers/rtc/librtc.o
 .note.GNU-stack
                0x0000000000000000        0x0 drivers/rtc/librtc.o
 .reginfo       0x0000000000000000       0x18 drivers/serial/libserial.o
 .text          0x0000000000000000        0x0 drivers/serial/libserial.o
 .text.serial_null
                0x0000000000000000        0x8 drivers/serial/libserial.o
 .text.serial_register
                0x0000000000000000       0x14 drivers/serial/libserial.o
 .text.serial_assign
                0x0000000000000000       0x64 drivers/serial/libserial.o
 .text.serial_initialize
                0x0000000000000000      0x1a0 drivers/serial/libserial.o
 .text.serial_reinit_all
                0x0000000000000000       0x3c drivers/serial/libserial.o
 .text.default_serial_puts
                0x0000000000000000       0x48 drivers/serial/libserial.o
 .eh_frame      0x0000000000000000      0x314 drivers/serial/libserial.o
 .data          0x0000000000000000        0x0 drivers/serial/libserial.o
 .bss           0x0000000000000000        0x0 drivers/serial/libserial.o
 .pdr           0x0000000000000000      0x340 drivers/serial/libserial.o
 .note.GNU-stack
                0x0000000000000000        0x0 drivers/serial/libserial.o
 .reginfo       0x0000000000000000       0x18 drivers/spi/libspi.o
 .text          0x0000000000000000        0x0 drivers/spi/libspi.o
 .text.spi_set_wordlen
                0x0000000000000000       0x40 drivers/spi/libspi.o
 .text.spi_do_alloc_slave
                0x0000000000000000       0x84 drivers/spi/libspi.o
 .rodata.str1.8
                0x0000000000000000       0x20 drivers/spi/libspi.o
 .eh_frame      0x0000000000000000       0x68 drivers/spi/libspi.o
 .data          0x0000000000000000        0x0 drivers/spi/libspi.o
 .bss           0x0000000000000000        0x0 drivers/spi/libspi.o
 .comment       0x0000000000000000       0x36 drivers/spi/libspi.o
 .pdr           0x0000000000000000       0x40 drivers/spi/libspi.o
 .mdebug.abiN32
                0x0000000000000000        0x0 drivers/spi/libspi.o
 .note.GNU-stack
                0x0000000000000000        0x0 drivers/spi/libspi.o
 .debug_aranges
                0x0000000000000000       0x28 drivers/spi/libspi.o
 .debug_info    0x0000000000000000      0x557 drivers/spi/libspi.o
 .debug_abbrev  0x0000000000000000      0x19f drivers/spi/libspi.o
 .debug_line    0x0000000000000000      0x172 drivers/spi/libspi.o
 .debug_str     0x0000000000000000      0x364 drivers/spi/libspi.o
 .debug_loc     0x0000000000000000      0x1d0 drivers/spi/libspi.o
 .debug_ranges  0x0000000000000000       0x18 drivers/spi/libspi.o
 .gnu.attributes
                0x0000000000000000       0x10 drivers/spi/libspi.o
 .reginfo       0x0000000000000000       0x18 fs/cramfs/libcramfs.o
 .text          0x0000000000000000        0x0 fs/cramfs/libcramfs.o
 .text.cramfs_read_super
                0x0000000000000000      0x114 fs/cramfs/libcramfs.o
 .text.cramfs_resolve
                0x0000000000000000      0x190 fs/cramfs/libcramfs.o
 .text.cramfs_uncompress
                0x0000000000000000       0xe4 fs/cramfs/libcramfs.o
 .text.cramfs_list_inode
                0x0000000000000000      0x154 fs/cramfs/libcramfs.o
 .text.cramfs_load
                0x0000000000000000       0xe0 fs/cramfs/libcramfs.o
 .text.cramfs_ls
                0x0000000000000000      0x150 fs/cramfs/libcramfs.o
 .text.cramfs_info
                0x0000000000000000      0x100 fs/cramfs/libcramfs.o
 .text.cramfs_check
                0x0000000000000000       0x54 fs/cramfs/libcramfs.o
 .text.cramfs_uncompress_block
                0x0000000000000000       0x80 fs/cramfs/libcramfs.o
 .text.cramfs_uncompress_init
                0x0000000000000000       0x6c fs/cramfs/libcramfs.o
 .text.cramfs_uncompress_exit
                0x0000000000000000       0x24 fs/cramfs/libcramfs.o
 .rodata.str1.8
                0x0000000000000000      0x210 fs/cramfs/libcramfs.o
 .eh_frame      0x0000000000000000      0x204 fs/cramfs/libcramfs.o
 .data          0x0000000000000000        0x0 fs/cramfs/libcramfs.o
 .bss           0x0000000000000000        0x0 fs/cramfs/libcramfs.o
 .bss.stream    0x0000000000000000       0x40 fs/cramfs/libcramfs.o
 .comment       0x0000000000000000       0x6c fs/cramfs/libcramfs.o
 .pdr           0x0000000000000000      0x160 fs/cramfs/libcramfs.o
 .mdebug.abiN32
                0x0000000000000000        0x0 fs/cramfs/libcramfs.o
 .note.GNU-stack
                0x0000000000000000        0x0 fs/cramfs/libcramfs.o
 .debug_aranges
                0x0000000000000000       0x88 fs/cramfs/libcramfs.o
 .debug_info    0x0000000000000000     0x16c3 fs/cramfs/libcramfs.o
 .debug_abbrev  0x0000000000000000      0x4b9 fs/cramfs/libcramfs.o
 .debug_line    0x0000000000000000      0x5a7 fs/cramfs/libcramfs.o
 .debug_str     0x0000000000000000      0x983 fs/cramfs/libcramfs.o
 .debug_loc     0x0000000000000000      0x8ad fs/cramfs/libcramfs.o
 .debug_ranges  0x0000000000000000       0xb0 fs/cramfs/libcramfs.o
 .gnu.attributes
                0x0000000000000000       0x10 fs/cramfs/libcramfs.o
 COMMON         0x0000000000000000       0x4c fs/cramfs/libcramfs.o
 .reginfo       0x0000000000000000       0x18 fs/libfs.o
 .text          0x0000000000000000        0x0 fs/libfs.o
 .text.fs_probe_unsupported
                0x0000000000000000       0x24 fs/libfs.o
 .text.fs_ls_unsupported
                0x0000000000000000        0x8 fs/libfs.o
 .text.fs_read_unsupported
                0x0000000000000000        0x8 fs/libfs.o
 .text.fs_write_unsupported
                0x0000000000000000        0x8 fs/libfs.o
 .text.fs_close_unsupported
                0x0000000000000000        0x8 fs/libfs.o
 .text.fs_close
                0x0000000000000000       0x2c fs/libfs.o
 .text.fs_set_blk_dev
                0x0000000000000000       0xac fs/libfs.o
 .text.fs_ls    0x0000000000000000       0x38 fs/libfs.o
 .text.fs_read  0x0000000000000000       0x74 fs/libfs.o
 .text.fs_write
                0x0000000000000000       0x64 fs/libfs.o
 .text.do_load  0x0000000000000000      0x228 fs/libfs.o
 .text.do_ls    0x0000000000000000       0x90 fs/libfs.o
 .text.do_save  0x0000000000000000      0x190 fs/libfs.o
 .rodata.str1.8
                0x0000000000000000      0x128 fs/libfs.o
 .eh_frame      0x0000000000000000      0x1ac fs/libfs.o
 .data          0x0000000000000000        0x0 fs/libfs.o
 .data.fstypes  0x0000000000000000       0x18 fs/libfs.o
 .bss           0x0000000000000000        0x0 fs/libfs.o
 .bss.fs_dev_desc
                0x0000000000000000        0x4 fs/libfs.o
 .bss.fs_partition
                0x0000000000000000       0x78 fs/libfs.o
 .bss.fs_type   0x0000000000000000        0x4 fs/libfs.o
 .comment       0x0000000000000000       0x36 fs/libfs.o
 .pdr           0x0000000000000000      0x1a0 fs/libfs.o
 .mdebug.abiN32
                0x0000000000000000        0x0 fs/libfs.o
 .note.GNU-stack
                0x0000000000000000        0x0 fs/libfs.o
 .debug_aranges
                0x0000000000000000       0x80 fs/libfs.o
 .debug_info    0x0000000000000000     0x18cd fs/libfs.o
 .debug_abbrev  0x0000000000000000      0x3b0 fs/libfs.o
 .debug_line    0x0000000000000000      0x41a fs/libfs.o
 .debug_str     0x0000000000000000      0xa9d fs/libfs.o
 .debug_loc     0x0000000000000000      0xaa7 fs/libfs.o
 .debug_ranges  0x0000000000000000       0x70 fs/libfs.o
 .gnu.attributes
                0x0000000000000000       0x10 fs/libfs.o
 .reginfo       0x0000000000000000       0x18 lib/libfdt/libfdt.o
 .text          0x0000000000000000        0x0 lib/libfdt/libfdt.o
 .text.fdt_create_empty_tree
                0x0000000000000000       0x98 lib/libfdt/libfdt.o
 .text.fdt_getprop_by_offset
                0x0000000000000000       0x5c lib/libfdt/libfdt.o
 .text.fdt_get_phandle
                0x0000000000000000       0x88 lib/libfdt/libfdt.o
 .text.fdt_get_path
                0x0000000000000000      0x184 lib/libfdt/libfdt.o
 .text.fdt_node_offset_by_prop_value
                0x0000000000000000       0xc4 lib/libfdt/libfdt.o
 .text.fdt_node_offset_by_phandle
                0x0000000000000000       0x90 lib/libfdt/libfdt.o
 .text.fdt_appendprop
                0x0000000000000000       0xf8 lib/libfdt/libfdt.o
 .text._fdt_grab_space
                0x0000000000000000       0x48 lib/libfdt/libfdt.o
 .text.fdt_create
                0x0000000000000000       0x7c lib/libfdt/libfdt.o
 .text.fdt_add_reservemap_entry
                0x0000000000000000       0x6c lib/libfdt/libfdt.o
 .text.fdt_finish_reservemap
                0x0000000000000000        0xc lib/libfdt/libfdt.o
 .text.fdt_begin_node
                0x0000000000000000       0x98 lib/libfdt/libfdt.o
 .text.fdt_end_node
                0x0000000000000000       0x54 lib/libfdt/libfdt.o
 .text.fdt_property
                0x0000000000000000      0x150 lib/libfdt/libfdt.o
 .text.fdt_finish
                0x0000000000000000      0x118 lib/libfdt/libfdt.o
 .text.fdt_find_regions
                0x0000000000000000      0x3bc lib/libfdt/libfdt.o
 .rodata.fdt_find_regions
                0x0000000000000000       0x24 lib/libfdt/libfdt.o
 .eh_frame      0x0000000000000000      0xb34 lib/libfdt/libfdt.o
 .data          0x0000000000000000        0x0 lib/libfdt/libfdt.o
 .bss           0x0000000000000000        0x0 lib/libfdt/libfdt.o
 .pdr           0x0000000000000000      0x8a0 lib/libfdt/libfdt.o
 .note.GNU-stack
                0x0000000000000000        0x0 lib/libfdt/libfdt.o
 .reginfo       0x0000000000000000       0x18 lib/libgeneric.o
 .text          0x0000000000000000        0x0 lib/libgeneric.o
 .text.addrmap_virt_to_phys
                0x0000000000000000       0x78 lib/libgeneric.o
 .text.addrmap_phys_to_virt
                0x0000000000000000       0x78 lib/libgeneric.o
 .text.BZ2_bzlibVersion
                0x0000000000000000        0xc lib/libgeneric.o
 .text.BZ2_hbMakeCodeLengths
                0x0000000000000000      0x448 lib/libgeneric.o
 .text.BZ2_hbAssignCodes
                0x0000000000000000       0x50 lib/libgeneric.o
 .text.crc7     0x0000000000000000       0x38 lib/libgeneric.o
 .text.display_options
                0x0000000000000000       0x2c lib/libgeneric.o
 .text.get_prop_check_min_len
                0x0000000000000000       0x54 lib/libgeneric.o
 .text.fdtdec_get_compatible
                0x0000000000000000       0x18 lib/libgeneric.o
 .text.fdtdec_get_addr_size
                0x0000000000000000       0x68 lib/libgeneric.o
 .text.fdtdec_get_addr
                0x0000000000000000        0x8 lib/libgeneric.o
 .text.fdtdec_get_uint64
                0x0000000000000000       0x40 lib/libgeneric.o
 .text.fdtdec_get_is_enabled
                0x0000000000000000       0x44 lib/libgeneric.o
 .text.fdtdec_lookup
                0x0000000000000000       0x80 lib/libgeneric.o
 .text.fdtdec_next_compatible
                0x0000000000000000       0x18 lib/libgeneric.o
 .text.fdtdec_next_compatible_subnode
                0x0000000000000000       0xa4 lib/libgeneric.o
 .text.fdtdec_next_alias
                0x0000000000000000       0xbc lib/libgeneric.o
 .text.fdtdec_add_aliases_for_id
                0x0000000000000000      0x2b8 lib/libgeneric.o
 .text.fdtdec_find_aliases_for_id
                0x0000000000000000       0x64 lib/libgeneric.o
 .text.fdtdec_prepare_fdt
                0x0000000000000000       0x54 lib/libgeneric.o
 .text.fdtdec_check_fdt
                0x0000000000000000       0x20 lib/libgeneric.o
 .text.fdtdec_lookup_phandle
                0x0000000000000000       0x44 lib/libgeneric.o
 .text.fdtdec_get_int_array
                0x0000000000000000       0x74 lib/libgeneric.o
 .text.fdtdec_locate_array
                0x0000000000000000       0x28 lib/libgeneric.o
 .text.fdtdec_get_bool
                0x0000000000000000       0x20 lib/libgeneric.o
 .text.fdtdec_decode_gpios
                0x0000000000000000       0xd0 lib/libgeneric.o
 .text.fdtdec_decode_gpio
                0x0000000000000000       0x30 lib/libgeneric.o
 .text.fdtdec_get_gpio
                0x0000000000000000       0x48 lib/libgeneric.o
 .text.fdtdec_set_gpio
                0x0000000000000000       0x2c lib/libgeneric.o
 .text.fdtdec_setup_gpio
                0x0000000000000000       0x40 lib/libgeneric.o
 .text.fdtdec_get_byte_array
                0x0000000000000000       0x58 lib/libgeneric.o
 .text.fdtdec_locate_byte_array
                0x0000000000000000       0x24 lib/libgeneric.o
 .text.fdtdec_get_config_bool
                0x0000000000000000       0x5c lib/libgeneric.o
 .text.fdtdec_decode_region
                0x0000000000000000       0x64 lib/libgeneric.o
 .text.initcall_run_list
                0x0000000000000000       0x4c lib/libgeneric.o
 .text.ldiv     0x0000000000000000       0x3c lib/libgeneric.o
 .text.lmb_dump_all
                0x0000000000000000        0x8 lib/libgeneric.o
 .text.lmb_free
                0x0000000000000000      0x100 lib/libgeneric.o
 .text.lmb_is_reserved
                0x0000000000000000       0x50 lib/libgeneric.o
 .text.strncasecmp
                0x0000000000000000       0x90 lib/libgeneric.o
 .text.strcasecmp
                0x0000000000000000        0x8 lib/libgeneric.o
 .text.strncat  0x0000000000000000       0x5c lib/libgeneric.o
 .text.strrchr  0x0000000000000000       0x58 lib/libgeneric.o
 .text.strspn   0x0000000000000000       0x44 lib/libgeneric.o
 .text.strtok   0x0000000000000000       0xa0 lib/libgeneric.o
 .text.strswab  0x0000000000000000       0x50 lib/libgeneric.o
 .text.bcopy    0x0000000000000000       0x2c lib/libgeneric.o
 .text.memscan  0x0000000000000000       0x24 lib/libgeneric.o
 .text.memchr_inv
                0x0000000000000000      0x114 lib/libgeneric.o
 .text.strmhz   0x0000000000000000       0x94 lib/libgeneric.o
 .text.tick_to_time
                0x0000000000000000       0x68 lib/libgeneric.o
 .text.get_ticks
                0x0000000000000000       0x50 lib/libgeneric.o
 .text.get_timer
                0x0000000000000000       0x34 lib/libgeneric.o
 .text.timer_get_us
                0x0000000000000000       0x2c lib/libgeneric.o
 .text.__udelay
                0x0000000000000000       0x94 lib/libgeneric.o
 .text.ustrtoul
                0x0000000000000000       0x98 lib/libgeneric.o
 .text.ustrtoull
                0x0000000000000000       0x98 lib/libgeneric.o
 .text.__assert_fail
                0x0000000000000000       0x18 lib/libgeneric.o
 .text.print_grouped_ull
                0x0000000000000000       0xb4 lib/libgeneric.o
 .rodata.crc7_syndrome_table
                0x0000000000000000      0x100 lib/libgeneric.o
 .rodata.compat_names
                0x0000000000000000       0xc0 lib/libgeneric.o
 .eh_frame      0x0000000000000000     0x156c lib/libgeneric.o
 .data          0x0000000000000000        0x0 lib/libgeneric.o
 .bss           0x0000000000000000        0x0 lib/libgeneric.o
 .pdr           0x0000000000000000     0x12e0 lib/libgeneric.o
 .note.GNU-stack
                0x0000000000000000        0x0 lib/libgeneric.o
 COMMON         0x0000000000000000        0x4 lib/libgeneric.o
 .reginfo       0x0000000000000000       0x18 lib/lzma/liblzma.o
 .text          0x0000000000000000        0x0 lib/lzma/liblzma.o
 .text.LzmaDec_InitDicAndState
                0x0000000000000000       0x34 lib/lzma/liblzma.o
 .text.LzmaDec_DecodeToBuf
                0x0000000000000000      0x14c lib/lzma/liblzma.o
 .text.LzmaDec_Free
                0x0000000000000000       0x44 lib/lzma/liblzma.o
 .text.LzmaDec_Allocate
                0x0000000000000000       0xd0 lib/lzma/liblzma.o
 .eh_frame      0x0000000000000000      0x298 lib/lzma/liblzma.o
 .data          0x0000000000000000        0x0 lib/lzma/liblzma.o
 .bss           0x0000000000000000        0x0 lib/lzma/liblzma.o
 .pdr           0x0000000000000000      0x220 lib/lzma/liblzma.o
 .note.GNU-stack
                0x0000000000000000        0x0 lib/lzma/liblzma.o
 .reginfo       0x0000000000000000       0x18 lib/zlib/libz.o
 .text          0x0000000000000000        0x0 lib/zlib/libz.o
 .text.inflateInit_
                0x0000000000000000       0x14 lib/zlib/libz.o
 .rodata.z_errmsg
                0x0000000000000000       0x28 lib/zlib/libz.o
 .eh_frame      0x0000000000000000      0x1c4 lib/zlib/libz.o
 .data          0x0000000000000000        0x0 lib/zlib/libz.o
 .bss           0x0000000000000000        0x0 lib/zlib/libz.o
 .pdr           0x0000000000000000      0x140 lib/zlib/libz.o
 .note.GNU-stack
                0x0000000000000000        0x0 lib/zlib/libz.o
 .reginfo       0x0000000000000000       0x18 net/libnet.o
 .text          0x0000000000000000        0x0 net/libnet.o
 .text.ArpReceive
                0x0000000000000000      0x224 net/libnet.o
 .text.cdp_receive
                0x0000000000000000      0x158 net/libnet.o
 .text.__def_eth_init
                0x0000000000000000        0x8 net/libnet.o
 .text.eth_setenv_enetaddr
                0x0000000000000000       0x40 net/libnet.o
 .text.eth_get_dev_by_name
                0x0000000000000000       0x98 net/libnet.o
 .text.eth_get_dev_by_index
                0x0000000000000000       0x38 net/libnet.o
 .text.eth_write_hwaddr
                0x0000000000000000      0x184 net/libnet.o
 .text.eth_register
                0x0000000000000000       0x84 net/libnet.o
 .text.eth_unregister
                0x0000000000000000       0xa4 net/libnet.o
 .text.eth_initialize
                0x0000000000000000      0x208 net/libnet.o
 .text.net_get_udp_handler
                0x0000000000000000        0xc net/libnet.o
 .text.net_get_arp_handler
                0x0000000000000000        0xc net/libnet.o
 .text.net_set_arp_handler
                0x0000000000000000       0x20 net/libnet.o
 .text.NetCksumOk
                0x0000000000000000       0x28 net/libnet.o
 .text.NetReceive
                0x0000000000000000      0x2e8 net/libnet.o
 .text.net_update_ether
                0x0000000000000000       0x80 net/libnet.o
 .text.ping_receive
                0x0000000000000000      0x114 net/libnet.o
 .rodata.__FUNCTION__.4835
                0x0000000000000000       0x18 net/libnet.o
 .eh_frame      0x0000000000000000      0xe94 net/libnet.o
 .data          0x0000000000000000        0x0 net/libnet.o
 .data.TftpRRQTimeoutMSecs
                0x0000000000000000        0x4 net/libnet.o
 .bss           0x0000000000000000        0x0 net/libnet.o
 .bss.index.4863
                0x0000000000000000        0x4 net/libnet.o
 .pdr           0x0000000000000000      0xca0 net/libnet.o
 .note.GNU-stack
                0x0000000000000000        0x0 net/libnet.o
 .reginfo       0x0000000000000000       0x18 board/octeon/sim/libsim.o
 .text          0x0000000000000000        0x0 board/octeon/sim/libsim.o
 .text.octeon_led_str_write
                0x0000000000000000        0x8 board/octeon/sim/libsim.o
 .eh_frame      0x0000000000000000       0xec board/octeon/sim/libsim.o
 .data          0x0000000000000000        0x0 board/octeon/sim/libsim.o
 .bss           0x0000000000000000        0x0 board/octeon/sim/libsim.o
 .pdr           0x0000000000000000       0xe0 board/octeon/sim/libsim.o
 .note.GNU-stack
                0x0000000000000000        0x0 board/octeon/sim/libsim.o
 .text          0x0000000000000000       0x60 /home/rakeshgarg/cavium/tools/tools-141023/bin/../lib/gcc/mips64-octeon-linux-gnu/4.7.0/n32/libgcc.a(_sf_to_df.o)
 .data          0x0000000000000000        0x0 /home/rakeshgarg/cavium/tools/tools-141023/bin/../lib/gcc/mips64-octeon-linux-gnu/4.7.0/n32/libgcc.a(_sf_to_df.o)
 .bss           0x0000000000000000        0x0 /home/rakeshgarg/cavium/tools/tools-141023/bin/../lib/gcc/mips64-octeon-linux-gnu/4.7.0/n32/libgcc.a(_sf_to_df.o)
 .reginfo       0x0000000000000000       0x18 /home/rakeshgarg/cavium/tools/tools-141023/bin/../lib/gcc/mips64-octeon-linux-gnu/4.7.0/n32/libgcc.a(_sf_to_df.o)
 .pdr           0x0000000000000000       0x20 /home/rakeshgarg/cavium/tools/tools-141023/bin/../lib/gcc/mips64-octeon-linux-gnu/4.7.0/n32/libgcc.a(_sf_to_df.o)
 .mdebug.abiN32
                0x0000000000000000        0x0 /home/rakeshgarg/cavium/tools/tools-141023/bin/../lib/gcc/mips64-octeon-linux-gnu/4.7.0/n32/libgcc.a(_sf_to_df.o)
 .debug_info    0x0000000000000000      0x220 /home/rakeshgarg/cavium/tools/tools-141023/bin/../lib/gcc/mips64-octeon-linux-gnu/4.7.0/n32/libgcc.a(_sf_to_df.o)
 .debug_abbrev  0x0000000000000000      0x121 /home/rakeshgarg/cavium/tools/tools-141023/bin/../lib/gcc/mips64-octeon-linux-gnu/4.7.0/n32/libgcc.a(_sf_to_df.o)
 .debug_loc     0x0000000000000000       0x5b /home/rakeshgarg/cavium/tools/tools-141023/bin/../lib/gcc/mips64-octeon-linux-gnu/4.7.0/n32/libgcc.a(_sf_to_df.o)
 .debug_aranges
                0x0000000000000000       0x20 /home/rakeshgarg/cavium/tools/tools-141023/bin/../lib/gcc/mips64-octeon-linux-gnu/4.7.0/n32/libgcc.a(_sf_to_df.o)
 .debug_line    0x0000000000000000       0x8a /home/rakeshgarg/cavium/tools/tools-141023/bin/../lib/gcc/mips64-octeon-linux-gnu/4.7.0/n32/libgcc.a(_sf_to_df.o)
 .debug_str     0x0000000000000000      0x21d /home/rakeshgarg/cavium/tools/tools-141023/bin/../lib/gcc/mips64-octeon-linux-gnu/4.7.0/n32/libgcc.a(_sf_to_df.o)
 .comment       0x0000000000000000       0x36 /home/rakeshgarg/cavium/tools/tools-141023/bin/../lib/gcc/mips64-octeon-linux-gnu/4.7.0/n32/libgcc.a(_sf_to_df.o)
 .note.GNU-stack
                0x0000000000000000        0x0 /home/rakeshgarg/cavium/tools/tools-141023/bin/../lib/gcc/mips64-octeon-linux-gnu/4.7.0/n32/libgcc.a(_sf_to_df.o)
 .gnu.attributes
                0x0000000000000000       0x10 /home/rakeshgarg/cavium/tools/tools-141023/bin/../lib/gcc/mips64-octeon-linux-gnu/4.7.0/n32/libgcc.a(_sf_to_df.o)
 .eh_frame      0x0000000000000000       0x34 /home/rakeshgarg/cavium/tools/tools-141023/bin/../lib/gcc/mips64-octeon-linux-gnu/4.7.0/n32/libgcc.a(_sf_to_df.o)
 .text          0x0000000000000000       0x50 /home/rakeshgarg/cavium/tools/tools-141023/bin/../lib/gcc/mips64-octeon-linux-gnu/4.7.0/n32/libgcc.a(_make_df.o)
 .data          0x0000000000000000        0x0 /home/rakeshgarg/cavium/tools/tools-141023/bin/../lib/gcc/mips64-octeon-linux-gnu/4.7.0/n32/libgcc.a(_make_df.o)
 .bss           0x0000000000000000        0x0 /home/rakeshgarg/cavium/tools/tools-141023/bin/../lib/gcc/mips64-octeon-linux-gnu/4.7.0/n32/libgcc.a(_make_df.o)
 .reginfo       0x0000000000000000       0x18 /home/rakeshgarg/cavium/tools/tools-141023/bin/../lib/gcc/mips64-octeon-linux-gnu/4.7.0/n32/libgcc.a(_make_df.o)
 .pdr           0x0000000000000000       0x20 /home/rakeshgarg/cavium/tools/tools-141023/bin/../lib/gcc/mips64-octeon-linux-gnu/4.7.0/n32/libgcc.a(_make_df.o)
 .mdebug.abiN32
                0x0000000000000000        0x0 /home/rakeshgarg/cavium/tools/tools-141023/bin/../lib/gcc/mips64-octeon-linux-gnu/4.7.0/n32/libgcc.a(_make_df.o)
 .debug_info    0x0000000000000000      0x1e4 /home/rakeshgarg/cavium/tools/tools-141023/bin/../lib/gcc/mips64-octeon-linux-gnu/4.7.0/n32/libgcc.a(_make_df.o)
 .debug_abbrev  0x0000000000000000      0x118 /home/rakeshgarg/cavium/tools/tools-141023/bin/../lib/gcc/mips64-octeon-linux-gnu/4.7.0/n32/libgcc.a(_make_df.o)
 .debug_loc     0x0000000000000000       0xbe /home/rakeshgarg/cavium/tools/tools-141023/bin/../lib/gcc/mips64-octeon-linux-gnu/4.7.0/n32/libgcc.a(_make_df.o)
 .debug_aranges
                0x0000000000000000       0x20 /home/rakeshgarg/cavium/tools/tools-141023/bin/../lib/gcc/mips64-octeon-linux-gnu/4.7.0/n32/libgcc.a(_make_df.o)
 .debug_line    0x0000000000000000       0x88 /home/rakeshgarg/cavium/tools/tools-141023/bin/../lib/gcc/mips64-octeon-linux-gnu/4.7.0/n32/libgcc.a(_make_df.o)
 .debug_str     0x0000000000000000      0x1e1 /home/rakeshgarg/cavium/tools/tools-141023/bin/../lib/gcc/mips64-octeon-linux-gnu/4.7.0/n32/libgcc.a(_make_df.o)
 .comment       0x0000000000000000       0x36 /home/rakeshgarg/cavium/tools/tools-141023/bin/../lib/gcc/mips64-octeon-linux-gnu/4.7.0/n32/libgcc.a(_make_df.o)
 .note.GNU-stack
                0x0000000000000000        0x0 /home/rakeshgarg/cavium/tools/tools-141023/bin/../lib/gcc/mips64-octeon-linux-gnu/4.7.0/n32/libgcc.a(_make_df.o)
 .gnu.attributes
                0x0000000000000000       0x10 /home/rakeshgarg/cavium/tools/tools-141023/bin/../lib/gcc/mips64-octeon-linux-gnu/4.7.0/n32/libgcc.a(_make_df.o)
 .eh_frame      0x0000000000000000       0x34 /home/rakeshgarg/cavium/tools/tools-141023/bin/../lib/gcc/mips64-octeon-linux-gnu/4.7.0/n32/libgcc.a(_make_df.o)
 .text          0x0000000000000000       0xc0 /home/rakeshgarg/cavium/tools/tools-141023/bin/../lib/gcc/mips64-octeon-linux-gnu/4.7.0/n32/libgcc.a(_unpack_sf.o)
 .data          0x0000000000000000        0x0 /home/rakeshgarg/cavium/tools/tools-141023/bin/../lib/gcc/mips64-octeon-linux-gnu/4.7.0/n32/libgcc.a(_unpack_sf.o)
 .bss           0x0000000000000000        0x0 /home/rakeshgarg/cavium/tools/tools-141023/bin/../lib/gcc/mips64-octeon-linux-gnu/4.7.0/n32/libgcc.a(_unpack_sf.o)
 .reginfo       0x0000000000000000       0x18 /home/rakeshgarg/cavium/tools/tools-141023/bin/../lib/gcc/mips64-octeon-linux-gnu/4.7.0/n32/libgcc.a(_unpack_sf.o)
 .pdr           0x0000000000000000       0x20 /home/rakeshgarg/cavium/tools/tools-141023/bin/../lib/gcc/mips64-octeon-linux-gnu/4.7.0/n32/libgcc.a(_unpack_sf.o)
 .mdebug.abiN32
                0x0000000000000000        0x0 /home/rakeshgarg/cavium/tools/tools-141023/bin/../lib/gcc/mips64-octeon-linux-gnu/4.7.0/n32/libgcc.a(_unpack_sf.o)
 .debug_info    0x0000000000000000      0x217 /home/rakeshgarg/cavium/tools/tools-141023/bin/../lib/gcc/mips64-octeon-linux-gnu/4.7.0/n32/libgcc.a(_unpack_sf.o)
 .debug_abbrev  0x0000000000000000      0x135 /home/rakeshgarg/cavium/tools/tools-141023/bin/../lib/gcc/mips64-octeon-linux-gnu/4.7.0/n32/libgcc.a(_unpack_sf.o)
 .debug_loc     0x0000000000000000       0xf1 /home/rakeshgarg/cavium/tools/tools-141023/bin/../lib/gcc/mips64-octeon-linux-gnu/4.7.0/n32/libgcc.a(_unpack_sf.o)
 .debug_aranges
                0x0000000000000000       0x20 /home/rakeshgarg/cavium/tools/tools-141023/bin/../lib/gcc/mips64-octeon-linux-gnu/4.7.0/n32/libgcc.a(_unpack_sf.o)
 .debug_line    0x0000000000000000       0xb1 /home/rakeshgarg/cavium/tools/tools-141023/bin/../lib/gcc/mips64-octeon-linux-gnu/4.7.0/n32/libgcc.a(_unpack_sf.o)
 .debug_str     0x0000000000000000      0x205 /home/rakeshgarg/cavium/tools/tools-141023/bin/../lib/gcc/mips64-octeon-linux-gnu/4.7.0/n32/libgcc.a(_unpack_sf.o)
 .comment       0x0000000000000000       0x36 /home/rakeshgarg/cavium/tools/tools-141023/bin/../lib/gcc/mips64-octeon-linux-gnu/4.7.0/n32/libgcc.a(_unpack_sf.o)
 .note.GNU-stack
                0x0000000000000000        0x0 /home/rakeshgarg/cavium/tools/tools-141023/bin/../lib/gcc/mips64-octeon-linux-gnu/4.7.0/n32/libgcc.a(_unpack_sf.o)
 .gnu.attributes
                0x0000000000000000       0x10 /home/rakeshgarg/cavium/tools/tools-141023/bin/../lib/gcc/mips64-octeon-linux-gnu/4.7.0/n32/libgcc.a(_unpack_sf.o)
 .eh_frame      0x0000000000000000       0x28 /home/rakeshgarg/cavium/tools/tools-141023/bin/../lib/gcc/mips64-octeon-linux-gnu/4.7.0/n32/libgcc.a(_unpack_sf.o)
 .text          0x0000000000000000      0x160 /home/rakeshgarg/cavium/tools/tools-141023/bin/../lib/gcc/mips64-octeon-linux-gnu/4.7.0/n32/libgcc.a(_pack_df.o)
 .data          0x0000000000000000        0x0 /home/rakeshgarg/cavium/tools/tools-141023/bin/../lib/gcc/mips64-octeon-linux-gnu/4.7.0/n32/libgcc.a(_pack_df.o)
 .bss           0x0000000000000000        0x0 /home/rakeshgarg/cavium/tools/tools-141023/bin/../lib/gcc/mips64-octeon-linux-gnu/4.7.0/n32/libgcc.a(_pack_df.o)
 .reginfo       0x0000000000000000       0x18 /home/rakeshgarg/cavium/tools/tools-141023/bin/../lib/gcc/mips64-octeon-linux-gnu/4.7.0/n32/libgcc.a(_pack_df.o)
 .pdr           0x0000000000000000       0x20 /home/rakeshgarg/cavium/tools/tools-141023/bin/../lib/gcc/mips64-octeon-linux-gnu/4.7.0/n32/libgcc.a(_pack_df.o)
 .mdebug.abiN32
                0x0000000000000000        0x0 /home/rakeshgarg/cavium/tools/tools-141023/bin/../lib/gcc/mips64-octeon-linux-gnu/4.7.0/n32/libgcc.a(_pack_df.o)
 .debug_info    0x0000000000000000      0x2bf /home/rakeshgarg/cavium/tools/tools-141023/bin/../lib/gcc/mips64-octeon-linux-gnu/4.7.0/n32/libgcc.a(_pack_df.o)
 .debug_abbrev  0x0000000000000000      0x16b /home/rakeshgarg/cavium/tools/tools-141023/bin/../lib/gcc/mips64-octeon-linux-gnu/4.7.0/n32/libgcc.a(_pack_df.o)
 .debug_loc     0x0000000000000000      0x2d8 /home/rakeshgarg/cavium/tools/tools-141023/bin/../lib/gcc/mips64-octeon-linux-gnu/4.7.0/n32/libgcc.a(_pack_df.o)
 .debug_aranges
                0x0000000000000000       0x20 /home/rakeshgarg/cavium/tools/tools-141023/bin/../lib/gcc/mips64-octeon-linux-gnu/4.7.0/n32/libgcc.a(_pack_df.o)
 .debug_line    0x0000000000000000       0xca /home/rakeshgarg/cavium/tools/tools-141023/bin/../lib/gcc/mips64-octeon-linux-gnu/4.7.0/n32/libgcc.a(_pack_df.o)
 .debug_str     0x0000000000000000      0x229 /home/rakeshgarg/cavium/tools/tools-141023/bin/../lib/gcc/mips64-octeon-linux-gnu/4.7.0/n32/libgcc.a(_pack_df.o)
 .comment       0x0000000000000000       0x36 /home/rakeshgarg/cavium/tools/tools-141023/bin/../lib/gcc/mips64-octeon-linux-gnu/4.7.0/n32/libgcc.a(_pack_df.o)
 .note.GNU-stack
                0x0000000000000000        0x0 /home/rakeshgarg/cavium/tools/tools-141023/bin/../lib/gcc/mips64-octeon-linux-gnu/4.7.0/n32/libgcc.a(_pack_df.o)
 .gnu.attributes
                0x0000000000000000       0x10 /home/rakeshgarg/cavium/tools/tools-141023/bin/../lib/gcc/mips64-octeon-linux-gnu/4.7.0/n32/libgcc.a(_pack_df.o)
 .eh_frame      0x0000000000000000       0x28 /home/rakeshgarg/cavium/tools/tools-141023/bin/../lib/gcc/mips64-octeon-linux-gnu/4.7.0/n32/libgcc.a(_pack_df.o)

Memory Configuration

Name             Origin             Length             Attributes
*default*        0x0000000000000000 0xffffffffffffffff

Linker script and memory map

                0x0000000000000000                . = 0x0
                0x0000000000000000                . = ALIGN (0x4)

.text           0x00000000c0000000    0x46708
                0x00000000c0000000                _start = .
 arch/mips/cpu/octeon/start.o(.text*)
 .text          0x00000000c0000000     0x1a50 arch/mips/cpu/octeon/start.o
                0x00000000c0000500                asm_reset
                0x00000000c00006bc                InitTLBStart
                0x00000000c0000bc8                relocate_code
                0x00000000c0000bd8                relocate_code_octeon
                0x00000000c0000d58                romExcHandle
                0x00000000c0000e58                debugHandler_entrypoint
                0x00000000c0000eb0                OcteonBreak
                0x00000000c0000eb8                SecondaryCoreInit
                0x00000000c0000f38                simple_tlb_setup
                0x00000000c0000fa0                single_tlb_setup
                0x00000000c000103c                tlbwi_and_eret
                0x00000000c0001050                asm_launch_linux_entry_point
                0x00000000c0001090                octeon_uart_write_char
                0x00000000c00010b4                octeon_uart_write_lf
                0x00000000c00011c4                exception_handler_stage2
                0x00000000c0001250                exception_handler_stage3
                0x00000000c00019d0                nmi_exception_handler
                0x00000000c0001a40                exception_handler_stage1
 *(.text)
 *(.text.*)
 .text.API_udelay
                0x00000000c0001a50        0xc api/libapi.o
 .text.API_display_clear
                0x00000000c0001a5c       0x20 api/libapi.o
 .text.API_display_draw_bitmap
                0x00000000c0001a7c       0x14 api/libapi.o
 .text.API_display_get_info
                0x00000000c0001a90       0x10 api/libapi.o
 .text.API_env_enum
                0x00000000c0001aa0       0xcc api/libapi.o
 .text.API_env_set
                0x00000000c0001b6c       0x44 api/libapi.o
 .text.API_env_get
                0x00000000c0001bb0       0x50 api/libapi.o
 .text.API_dev_write
                0x00000000c0001c00       0x6c api/libapi.o
 .text.API_dev_read
                0x00000000c0001c6c       0xc4 api/libapi.o
 .text.API_dev_close
                0x00000000c0001d30       0x7c api/libapi.o
 .text.API_dev_open
                0x00000000c0001dac       0x80 api/libapi.o
 .text.API_dev_enum
                0x00000000c0001e2c       0x68 api/libapi.o
 .text.API_get_timer
                0x00000000c0001e94       0x48 api/libapi.o
 .text.API_get_sys_info
                0x00000000c0001edc       0x38 api/libapi.o
 .text.API_reset
                0x00000000c0001f14       0x2c api/libapi.o
 .text.API_puts
                0x00000000c0001f40       0x38 api/libapi.o
 .text.API_tstc
                0x00000000c0001f78       0x3c api/libapi.o
 .text.API_putc
                0x00000000c0001fb4       0x38 api/libapi.o
 .text.API_getc
                0x00000000c0001fec       0x3c api/libapi.o
 .text.syscall  0x00000000c0002028       0x90 api/libapi.o
                0x00000000c0002028                syscall
 .text.api_init
                0x00000000c00020b8      0x188 api/libapi.o
                0x00000000c00020b8                api_init
 .text.platform_set_mr
                0x00000000c0002240       0x60 api/libapi.o
                0x00000000c0002240                platform_set_mr
 .text.display_get_info
                0x00000000c00022a0       0x10 api/libapi.o
                0x00000000c00022a0                display_get_info
 .text.display_draw_bitmap
                0x00000000c00022b0       0x10 api/libapi.o
                0x00000000c00022b0                display_draw_bitmap
 .text.display_clear
                0x00000000c00022c0        0x8 api/libapi.o
                0x00000000c00022c0                display_clear
 .text.dev_open_net
                0x00000000c00022c8       0x3c api/libapi.o
                0x00000000c00022c8                dev_open_net
 .text.dev_close_net
                0x00000000c0002304       0x34 api/libapi.o
                0x00000000c0002304                dev_close_net
 .text.dev_enum_net
                0x00000000c0002338       0x4c api/libapi.o
                0x00000000c0002338                dev_enum_net
 .text.dev_write_net
                0x00000000c0002384        0xc api/libapi.o
                0x00000000c0002384                dev_write_net
 .text.dev_read_net
                0x00000000c0002390        0xc api/libapi.o
                0x00000000c0002390                dev_read_net
 .text.dev_stor_type
                0x00000000c000239c       0x8c api/libapi.o
 .text.dev_stor_is_valid
                0x00000000c0002428       0x8c api/libapi.o
 .text.dev_stor_get
                0x00000000c00024b4      0x168 api/libapi.o
 .text.dev_stor_init
                0x00000000c000261c        0x8 api/libapi.o
                0x00000000c000261c                dev_stor_init
 .text.dev_enum_reset
                0x00000000c0002624       0x2c api/libapi.o
                0x00000000c0002624                dev_enum_reset
 .text.dev_enum_storage
                0x00000000c0002650      0x138 api/libapi.o
                0x00000000c0002650                dev_enum_storage
 .text.dev_open_stor
                0x00000000c0002788       0x48 api/libapi.o
                0x00000000c0002788                dev_open_stor
 .text.dev_close_stor
                0x00000000c00027d0        0x8 api/libapi.o
                0x00000000c00027d0                dev_close_stor
 .text.dev_read_stor
                0x00000000c00027d8      0x110 api/libapi.o
                0x00000000c00027d8                dev_read_stor
 .text.platform_sys_info
                0x00000000c00028e8       0x6c api/libapi.o
                0x00000000c00028e8                platform_sys_info
 .text.CVMX_BOOTMEM_NAMED_GET_NAME
                0x00000000c0002954       0x5c arch/mips/cpu/octeon/cvmx/libcvmx.o
 .text.__cvmx_bootmem_check_version
                0x00000000c00029b0       0x50 arch/mips/cpu/octeon/cvmx/libcvmx.o
 .text.__cvmx_validate_mem_range
                0x00000000c0002a00       0x40 arch/mips/cpu/octeon/cvmx/libcvmx.o
 .text.CVMX_BOOTMEM_NAMED_SET_NAME
                0x00000000c0002a40       0x58 arch/mips/cpu/octeon/cvmx/libcvmx.o
                0x00000000c0002a40                CVMX_BOOTMEM_NAMED_SET_NAME
 .text.cvmx_bootmem_init
                0x00000000c0002a98       0x18 arch/mips/cpu/octeon/cvmx/libcvmx.o
                0x00000000c0002a98                cvmx_bootmem_init
 .text.cvmx_bootmem_phy_alloc
                0x00000000c0002ab0      0x2fc arch/mips/cpu/octeon/cvmx/libcvmx.o
                0x00000000c0002ab0                cvmx_bootmem_phy_alloc
 .text.__cvmx_bootmem_phy_free
                0x00000000c0002dac      0x2bc arch/mips/cpu/octeon/cvmx/libcvmx.o
                0x00000000c0002dac                __cvmx_bootmem_phy_free
 .text.cvmx_bootmem_phy_list_print
                0x00000000c0003068       0xe4 arch/mips/cpu/octeon/cvmx/libcvmx.o
                0x00000000c0003068                cvmx_bootmem_phy_list_print
 .text.cvmx_bootmem_phy_named_block_find
                0x00000000c000314c      0x19c arch/mips/cpu/octeon/cvmx/libcvmx.o
                0x00000000c000314c                cvmx_bootmem_phy_named_block_find
 .text.__cvmx_bootmem_find_named_block_flags
                0x00000000c00032e8       0x80 arch/mips/cpu/octeon/cvmx/libcvmx.o
                0x00000000c00032e8                __cvmx_bootmem_find_named_block_flags
 .text.cvmx_bootmem_find_named_block
                0x00000000c0003368        0x8 arch/mips/cpu/octeon/cvmx/libcvmx.o
                0x00000000c0003368                cvmx_bootmem_find_named_block
 .text.cvmx_bootmem_phy_named_block_free
                0x00000000c0003370       0xec arch/mips/cpu/octeon/cvmx/libcvmx.o
                0x00000000c0003370                cvmx_bootmem_phy_named_block_free
 .text.cvmx_bootmem_free_named
                0x00000000c000345c        0x8 arch/mips/cpu/octeon/cvmx/libcvmx.o
                0x00000000c000345c                cvmx_bootmem_free_named
 .text.cvmx_bootmem_phy_named_block_alloc
                0x00000000c0003464      0x19c arch/mips/cpu/octeon/cvmx/libcvmx.o
                0x00000000c0003464                cvmx_bootmem_phy_named_block_alloc
 .text.cvmx_bootmem_alloc_named_range_once
                0x00000000c0003600      0x170 arch/mips/cpu/octeon/cvmx/libcvmx.o
                0x00000000c0003600                cvmx_bootmem_alloc_named_range_once
 .text.cvmx_bootmem_phy_named_block_print
                0x00000000c0003770      0x184 arch/mips/cpu/octeon/cvmx/libcvmx.o
                0x00000000c0003770                cvmx_bootmem_phy_named_block_print
 .text.cvmx_bootmem_phy_mem_list_init
                0x00000000c00038f4      0x39c arch/mips/cpu/octeon/cvmx/libcvmx.o
                0x00000000c00038f4                cvmx_bootmem_phy_mem_list_init
 .text.cvmx_bootmem_phy_mem_list_init_multi
                0x00000000c0003c90      0x3d8 arch/mips/cpu/octeon/cvmx/libcvmx.o
                0x00000000c0003c90                cvmx_bootmem_phy_mem_list_init_multi
 .text.cvmx_bootmem_reserve_memory
                0x00000000c0004068      0x16c arch/mips/cpu/octeon/cvmx/libcvmx.o
                0x00000000c0004068                cvmx_bootmem_reserve_memory
 .text.__cvmx_bootmem_internal_get_desc_ptr
                0x00000000c00041d4        0xc arch/mips/cpu/octeon/cvmx/libcvmx.o
                0x00000000c00041d4                __cvmx_bootmem_internal_get_desc_ptr
 .text.cvmx_boot_vector_init
                0x00000000c00041e0      0x164 arch/mips/cpu/octeon/cvmx/libcvmx.o
 .text.cvmx_boot_vector_get
                0x00000000c0004344       0x2c arch/mips/cpu/octeon/cvmx/libcvmx.o
                0x00000000c0004344                cvmx_boot_vector_get
 .text.cvmx_clock_get_rate_node
                0x00000000c0004370       0x70 arch/mips/cpu/octeon/cvmx/libcvmx.o
                0x00000000c0004370                cvmx_clock_get_rate_node
 .text.cvmx_clock_get_rate
                0x00000000c00043e0       0x10 arch/mips/cpu/octeon/cvmx/libcvmx.o
                0x00000000c00043e0                cvmx_clock_get_rate
 .text.cvmx_coremask_barrier_sync
                0x00000000c00043f0      0x20c arch/mips/cpu/octeon/cvmx/libcvmx.o
                0x00000000c00043f0                cvmx_coremask_barrier_sync
 .text.cvmx_coremask_str2bmp
                0x00000000c00045fc      0x1d4 arch/mips/cpu/octeon/cvmx/libcvmx.o
                0x00000000c00045fc                cvmx_coremask_str2bmp
 .text.cvmx_coremask_print
                0x00000000c00047d0      0x1f8 arch/mips/cpu/octeon/cvmx/libcvmx.o
                0x00000000c00047d0                cvmx_coremask_print
 .text.cvmx_fdt_get_fdt_size
                0x00000000c00049c8       0x2c arch/mips/cpu/octeon/cvmx/libcvmx.o
                0x00000000c00049c8                cvmx_fdt_get_fdt_size
 .text.cvmx_helper_qlm_jtag_init
                0x00000000c00049f4      0x100 arch/mips/cpu/octeon/cvmx/libcvmx.o
                0x00000000c00049f4                cvmx_helper_qlm_jtag_init
 .text.cvmx_helper_qlm_jtag_shift
                0x00000000c0004af4      0x110 arch/mips/cpu/octeon/cvmx/libcvmx.o
                0x00000000c0004af4                cvmx_helper_qlm_jtag_shift
 .text.cvmx_helper_qlm_jtag_shift_zeros
                0x00000000c0004c04       0x6c arch/mips/cpu/octeon/cvmx/libcvmx.o
                0x00000000c0004c04                cvmx_helper_qlm_jtag_shift_zeros
 .text.cvmx_helper_qlm_jtag_update
                0x00000000c0004c70       0xe4 arch/mips/cpu/octeon/cvmx/libcvmx.o
                0x00000000c0004c70                cvmx_helper_qlm_jtag_update
 .text.cvmx_helper_qlm_jtag_capture
                0x00000000c0004d54       0xe4 arch/mips/cpu/octeon/cvmx/libcvmx.o
                0x00000000c0004d54                cvmx_helper_qlm_jtag_capture
 .text.cvmx_l2c_address_to_tad
                0x00000000c0004e38       0xd0 arch/mips/cpu/octeon/cvmx/libcvmx.o
                0x00000000c0004e38                cvmx_l2c_address_to_tad
 .text.cvmx_l2c_get_set_bits
                0x00000000c0004f08      0x164 arch/mips/cpu/octeon/cvmx/libcvmx.o
                0x00000000c0004f08                cvmx_l2c_get_set_bits
 .text.cvmx_l2c_v2_address_to_tag
                0x00000000c000506c      0x12c arch/mips/cpu/octeon/cvmx/libcvmx.o
                0x00000000c000506c                cvmx_l2c_v2_address_to_tag
 .text.cvmx_l2c_get_num_sets
                0x00000000c0005198       0x24 arch/mips/cpu/octeon/cvmx/libcvmx.o
                0x00000000c0005198                cvmx_l2c_get_num_sets
 .text.cvmx_l2c_address_to_index
                0x00000000c00051bc      0x1d8 arch/mips/cpu/octeon/cvmx/libcvmx.o
                0x00000000c00051bc                cvmx_l2c_address_to_index
 .text.cvmx_l2c_get_num_assoc
                0x00000000c0005394      0x210 arch/mips/cpu/octeon/cvmx/libcvmx.o
                0x00000000c0005394                cvmx_l2c_get_num_assoc
 .text.cvmx_l2c_lock_line
                0x00000000c00055a4      0x418 arch/mips/cpu/octeon/cvmx/libcvmx.o
                0x00000000c00055a4                cvmx_l2c_lock_line
 .text.cvmx_l2c_lock_mem_region
                0x00000000c00059bc       0x6c arch/mips/cpu/octeon/cvmx/libcvmx.o
                0x00000000c00059bc                cvmx_l2c_lock_mem_region
 .text.cvmx_l2c_flush_line
                0x00000000c0005a28      0x1c0 arch/mips/cpu/octeon/cvmx/libcvmx.o
                0x00000000c0005a28                cvmx_l2c_flush_line
 .text.cvmx_l2c_flush
                0x00000000c0005be8      0x104 arch/mips/cpu/octeon/cvmx/libcvmx.o
                0x00000000c0005be8                cvmx_l2c_flush
 .text.cvmx_pcie_cfgx_read_node
                0x00000000c0005cec       0xd8 arch/mips/cpu/octeon/cvmx/libcvmx.o
                0x00000000c0005cec                cvmx_pcie_cfgx_read_node
 .text.cvmx_pcie_cfgx_write_node
                0x00000000c0005dc4       0xdc arch/mips/cpu/octeon/cvmx/libcvmx.o
                0x00000000c0005dc4                cvmx_pcie_cfgx_write_node
 .text.cvmx_sysinfo_get
                0x00000000c0005ea0        0xc arch/mips/cpu/octeon/cvmx/libcvmx.o
                0x00000000c0005ea0                cvmx_sysinfo_get
 .text.cvmx_sysinfo_minimal_initialize
                0x00000000c0005eac       0x88 arch/mips/cpu/octeon/cvmx/libcvmx.o
                0x00000000c0005eac                cvmx_sysinfo_minimal_initialize
 .text.cvmx_warn
                0x00000000c0005f34       0x74 arch/mips/cpu/octeon/cvmx/libcvmx.o
                0x00000000c0005f34                cvmx_warn
 .text.__octeon_is_model_runtime__
                0x00000000c0005fa8      0x238 arch/mips/cpu/octeon/cvmx/libcvmx.o
                0x00000000c0005fa8                __octeon_is_model_runtime__
 .text.cvmx_wait_usec
                0x00000000c00061e0       0x5c arch/mips/cpu/octeon/cvmx/libcvmx.o
                0x00000000c00061e0                cvmx_wait_usec
 .text.cvmx_phys_to_ptr
                0x00000000c000623c       0x9c arch/mips/cpu/octeon/cvmx/libcvmx.o
                0x00000000c000623c                cvmx_phys_to_ptr
 .text.cvmx_ptr_to_phys
                0x00000000c00062d8       0x58 arch/mips/cpu/octeon/cvmx/libcvmx.o
                0x00000000c00062d8                cvmx_ptr_to_phys
 .text.octeon_model_get_string_buffer
                0x00000000c0006330      0xc24 arch/mips/cpu/octeon/cvmx/libcvmx.o
                0x00000000c0006330                octeon_model_get_string_buffer
 .text.cvmx_qlm_get_num
                0x00000000c0006f54       0xec arch/mips/cpu/octeon/cvmx/libcvmx.o
                0x00000000c0006f54                cvmx_qlm_get_num
 .text.cvmx_qlm_get_lanes
                0x00000000c0007040       0x58 arch/mips/cpu/octeon/cvmx/libcvmx.o
                0x00000000c0007040                cvmx_qlm_get_lanes
 .text.cvmx_qlm_jtag_get_field
                0x00000000c0007098       0xc8 arch/mips/cpu/octeon/cvmx/libcvmx.o
                0x00000000c0007098                cvmx_qlm_jtag_get_field
 .text.__cvmx_qlm_lookup_field
                0x00000000c0007160       0x70 arch/mips/cpu/octeon/cvmx/libcvmx.o
 .text.cvmx_qlm_jtag_get_length
                0x00000000c00071d0       0x4c arch/mips/cpu/octeon/cvmx/libcvmx.o
                0x00000000c00071d0                cvmx_qlm_jtag_get_length
 .text.cvmx_qlm_jtag_get
                0x00000000c000721c       0xd8 arch/mips/cpu/octeon/cvmx/libcvmx.o
                0x00000000c000721c                cvmx_qlm_jtag_get
 .text.cvmx_qlm_jtag_set
                0x00000000c00072f4      0x254 arch/mips/cpu/octeon/cvmx/libcvmx.o
                0x00000000c00072f4                cvmx_qlm_jtag_set
 .text.__cvmx_qlm_pcie_idle_dac_tweak
                0x00000000c0007548       0x9c arch/mips/cpu/octeon/cvmx/libcvmx.o
                0x00000000c0007548                __cvmx_qlm_pcie_idle_dac_tweak
 .text.cvmx_qlm_get_gbaud_mhz_node
                0x00000000c00075e4      0x23c arch/mips/cpu/octeon/cvmx/libcvmx.o
                0x00000000c00075e4                cvmx_qlm_get_gbaud_mhz_node
 .text.cvmx_qlm_measure_clock_cn78xx
                0x00000000c0007820       0xd4 arch/mips/cpu/octeon/cvmx/libcvmx.o
                0x00000000c0007820                cvmx_qlm_measure_clock_cn78xx
 .text.cvmx_qlm_measure_clock
                0x00000000c00078f4      0x1f4 arch/mips/cpu/octeon/cvmx/libcvmx.o
                0x00000000c00078f4                cvmx_qlm_measure_clock
 .text.__cvmx_qlm_set_mult
                0x00000000c0007ae8      0x168 arch/mips/cpu/octeon/cvmx/libcvmx.o
                0x00000000c0007ae8                __cvmx_qlm_set_mult
 .text.cvmx_qlm_get_gbaud_mhz
                0x00000000c0007c50      0x310 arch/mips/cpu/octeon/cvmx/libcvmx.o
                0x00000000c0007c50                cvmx_qlm_get_gbaud_mhz
 .text.__cvmx_qlm_speed_tweak
                0x00000000c0007f60      0x550 arch/mips/cpu/octeon/cvmx/libcvmx.o
                0x00000000c0007f60                __cvmx_qlm_speed_tweak
 .text.cvmx_qlm_init
                0x00000000c00084b0      0x1ec arch/mips/cpu/octeon/cvmx/libcvmx.o
                0x00000000c00084b0                cvmx_qlm_init
 .text.do_reset
                0x00000000c000869c      0x170 arch/mips/cpu/octeon/libocteon.o
                0x00000000c000869c                do_reset
 .text.flush_cache
                0x00000000c000880c       0x18 arch/mips/cpu/octeon/libocteon.o
                0x00000000c000880c                flush_cache
 .text.write_one_tlb64
                0x00000000c0008824       0x28 arch/mips/cpu/octeon/libocteon.o
                0x00000000c0008824                write_one_tlb64
 .text.get_num_tlb_entries
                0x00000000c000884c       0x28 arch/mips/cpu/octeon/libocteon.o
                0x00000000c000884c                get_num_tlb_entries
 .text.enable_interrupts
                0x00000000c0008874        0x8 arch/mips/cpu/octeon/libocteon.o
                0x00000000c0008874                enable_interrupts
 .text.disable_interrupts
                0x00000000c000887c        0x8 arch/mips/cpu/octeon/libocteon.o
                0x00000000c000887c                disable_interrupts
 .text.octeon_get_cpu_multiplier
                0x00000000c0008884       0xd4 arch/mips/cpu/octeon/libocteon.o
                0x00000000c0008884                octeon_get_cpu_multiplier
 .text.octeon_get_ioclk_hz
                0x00000000c0008958       0xb8 arch/mips/cpu/octeon/libocteon.o
                0x00000000c0008958                octeon_get_ioclk_hz
 .text.calculate_header_crc
                0x00000000c0008a10       0x48 arch/mips/cpu/octeon/libocteon.o
                0x00000000c0008a10                calculate_header_crc
 .text.calculate_image_crc
                0x00000000c0008a58       0x24 arch/mips/cpu/octeon/libocteon.o
                0x00000000c0008a58                calculate_image_crc
 .text.lowcase  0x00000000c0008a7c       0x44 arch/mips/cpu/octeon/libocteon.o
                0x00000000c0008a7c                lowcase
 .text.octeon_init_cvmcount
                0x00000000c0008ac0      0x16c arch/mips/cpu/octeon/libocteon.o
                0x00000000c0008ac0                octeon_init_cvmcount
 .text.memset   0x00000000c0008c2c       0xc4 arch/mips/cpu/octeon/libocteon.o
                0x00000000c0008c2c                memset
 .text.memcmp   0x00000000c0008cf0       0xf8 arch/mips/cpu/octeon/libocteon.o
                0x00000000c0008cf0                memcmp
 .text.memcpy   0x00000000c0008de8      0x15c arch/mips/cpu/octeon/libocteon.o
                0x00000000c0008de8                memcpy
 .text.octeon_bist_start
                0x00000000c0008f44       0x54 arch/mips/cpu/octeon/libocteon.o
                0x00000000c0008f44                octeon_bist_start
 .text.get_except_base_reg
                0x00000000c0008f98        0xc arch/mips/cpu/octeon/libocteon.o
                0x00000000c0008f98                get_except_base_reg
 .text.set_except_base_addr
                0x00000000c0008fa4        0x8 arch/mips/cpu/octeon/libocteon.o
                0x00000000c0008fa4                set_except_base_addr
 .text.get_cop0_cvmctl_reg
                0x00000000c0008fac        0xc arch/mips/cpu/octeon/libocteon.o
                0x00000000c0008fac                get_cop0_cvmctl_reg
 .text.set_cop0_cvmctl_reg
                0x00000000c0008fb8        0x8 arch/mips/cpu/octeon/libocteon.o
                0x00000000c0008fb8                set_cop0_cvmctl_reg
 .text.get_cop0_cvmmemctl_reg
                0x00000000c0008fc0        0xc arch/mips/cpu/octeon/libocteon.o
                0x00000000c0008fc0                get_cop0_cvmmemctl_reg
 .text.set_cop0_cvmmemctl_reg
                0x00000000c0008fcc        0x8 arch/mips/cpu/octeon/libocteon.o
                0x00000000c0008fcc                set_cop0_cvmmemctl_reg
 .text.get_core_num
                0x00000000c0008fd4       0x20 arch/mips/cpu/octeon/libocteon.o
                0x00000000c0008fd4                get_core_num
 .text.get_except_base_addr
                0x00000000c0008ff4       0x20 arch/mips/cpu/octeon/libocteon.o
                0x00000000c0008ff4                get_except_base_addr
 .text.octeon_build_exception_table
                0x00000000c0009014       0xb4 arch/mips/cpu/octeon/libocteon.o
                0x00000000c0009014                octeon_build_exception_table
 .text.copy_default_except_handlers
                0x00000000c00090c8      0x128 arch/mips/cpu/octeon/libocteon.o
                0x00000000c00090c8                copy_default_except_handlers
 .text.octeon_translate_gd_to_linux_app_global_data
                0x00000000c00091f0      0x274 arch/mips/cpu/octeon/libocteon.o
                0x00000000c00091f0                octeon_translate_gd_to_linux_app_global_data
 .text.octeon_setup_boot_desc_block_board
                0x00000000c0009464        0x8 arch/mips/cpu/octeon/libocteon.o
                0x00000000c0009464                octeon_setup_boot_desc_block_board
 .text.octeon_write64_byte
                0x00000000c000946c       0x54 arch/mips/cpu/octeon/libocteon.o
                0x00000000c000946c                octeon_write64_byte
 .text.octeon_read64_byte
                0x00000000c00094c0       0x38 arch/mips/cpu/octeon/libocteon.o
                0x00000000c00094c0                octeon_read64_byte
 .text.memcpy64
                0x00000000c00094f8      0x158 arch/mips/cpu/octeon/libocteon.o
                0x00000000c00094f8                memcpy64
 .text.memset64
                0x00000000c0009650      0x108 arch/mips/cpu/octeon/libocteon.o
                0x00000000c0009650                memset64
 .text.mem_copy_tlb
                0x00000000c0009758      0x1d0 arch/mips/cpu/octeon/libocteon.o
                0x00000000c0009758                mem_copy_tlb
 .text.octeon_setup_boot_desc_block
                0x00000000c0009928      0xc80 arch/mips/cpu/octeon/libocteon.o
                0x00000000c0009928                octeon_setup_boot_desc_block
 .text.uboot_tlb_ptr_to_phys
                0x00000000c000a5a8       0x80 arch/mips/cpu/octeon/libocteon.o
                0x00000000c000a5a8                uboot_tlb_ptr_to_phys
 .text.octeon_get_boot_vector
                0x00000000c000a628       0x44 arch/mips/cpu/octeon/libocteon.o
                0x00000000c000a628                octeon_get_boot_vector
 .text.octeon_boot_bus_moveable_init
                0x00000000c000a66c       0xa8 arch/mips/cpu/octeon/libocteon.o
                0x00000000c000a66c                octeon_boot_bus_moveable_init
 .text.octeon_setup_boot_vector
                0x00000000c000a714      0x1b0 arch/mips/cpu/octeon/libocteon.o
                0x00000000c000a714                octeon_setup_boot_vector
 .text.get_coremask_override
                0x00000000c000a8c4       0xc0 arch/mips/cpu/octeon/libocteon.o
                0x00000000c000a8c4                get_coremask_override
 .text.octeon_get_available_coremask
                0x00000000c000a984      0x320 arch/mips/cpu/octeon/libocteon.o
                0x00000000c000a984                octeon_get_available_coremask
 .text.validate_coremask
                0x00000000c000aca4      0x134 arch/mips/cpu/octeon/libocteon.o
                0x00000000c000aca4                validate_coremask
 .text.octeon_get_available_core_count
                0x00000000c000add8       0x3c arch/mips/cpu/octeon/libocteon.o
                0x00000000c000add8                octeon_get_available_core_count
 .text.start_cores
                0x00000000c000ae14      0x35c arch/mips/cpu/octeon/libocteon.o
                0x00000000c000ae14                start_cores
 .text.octeon_sync_cores
                0x00000000c000b170       0x20 arch/mips/cpu/octeon/libocteon.o
                0x00000000c000b170                octeon_sync_cores
 .text.octeon_setup_ram_env
                0x00000000c000b190       0x64 arch/mips/cpu/octeon/libocteon.o
                0x00000000c000b190                octeon_setup_ram_env
 .text.octeon_restore_std_mips_config
                0x00000000c000b1f4       0x3c arch/mips/cpu/octeon/libocteon.o
                0x00000000c000b1f4                octeon_restore_std_mips_config
 .text.octeon_free_tmp_named_blocks
                0x00000000c000b230       0xcc arch/mips/cpu/octeon/libocteon.o
                0x00000000c000b230                octeon_free_tmp_named_blocks
 .text.octeon_bootloader_shutdown
                0x00000000c000b2fc       0x74 arch/mips/cpu/octeon/libocteon.o
                0x00000000c000b2fc                octeon_bootloader_shutdown
 .text.arch_preboot_os
                0x00000000c000b370        0x8 arch/mips/cpu/octeon/libocteon.o
                0x00000000c000b370                arch_preboot_os
 .text.octeon_setup_cvmx_sysinfo
                0x00000000c000b378       0x54 arch/mips/cpu/octeon/libocteon.o
                0x00000000c000b378                octeon_setup_cvmx_sysinfo
 .text.overwrite_console
                0x00000000c000b3cc        0x8 arch/mips/cpu/octeon/libocteon.o
                0x00000000c000b3cc                overwrite_console
 .text.crc32_no_comp
                0x00000000c000b3d4       0x8c arch/mips/cpu/octeon/libocteon.o
                0x00000000c000b3d4                crc32_no_comp
 .text.crc32    0x00000000c000b460       0x20 arch/mips/cpu/octeon/libocteon.o
                0x00000000c000b460                crc32
 .text.crc32_wd
                0x00000000c000b480        0x8 arch/mips/cpu/octeon/libocteon.o
                0x00000000c000b480                crc32_wd
 .text.crc32_wd_buf
                0x00000000c000b488       0x4c arch/mips/cpu/octeon/libocteon.o
                0x00000000c000b488                crc32_wd_buf
 .text.octeon_init_dram
                0x00000000c000b4d4      0x128 arch/mips/cpu/octeon/libocteon.o
                0x00000000c000b4d4                octeon_init_dram
 .text.octeon_import_ram_env
                0x00000000c000b5fc      0x164 arch/mips/cpu/octeon/libocteon.o
                0x00000000c000b5fc                octeon_import_ram_env
 .text.octeon_dram_clear_access_errors
                0x00000000c000b760      0x67c arch/mips/cpu/octeon/libocteon.o
                0x00000000c000b760                octeon_dram_clear_access_errors
 .text.on_pci_console_active
                0x00000000c000bddc      0x314 arch/mips/cpu/octeon/libocteon.o
 .text.on_console_uart
                0x00000000c000c0f0       0x58 arch/mips/cpu/octeon/libocteon.o
 .text.octeon_env_init
                0x00000000c000c148        0x8 arch/mips/cpu/octeon/libocteon.o
                0x00000000c000c148                octeon_env_init
 .text.__octeon_early_errata_workaround_f
                0x00000000c000c150       0x54 arch/mips/cpu/octeon/libocteon.o
                0x00000000c000c150                octeon_early_errata_workaround_f
                0x00000000c000c150                __octeon_early_errata_workaround_f
 .text.__octeon_late_errata_workaround_f
                0x00000000c000c1a4      0x13c arch/mips/cpu/octeon/libocteon.o
                0x00000000c000c1a4                octeon_late_errata_workaround_f
                0x00000000c000c1a4                __octeon_late_errata_workaround_f
 .text.do_go_exec_uboot_app
                0x00000000c000c2e0      0x2e0 arch/mips/cpu/octeon/libocteon.o
                0x00000000c000c2e0                do_go_exec_uboot_app
 .text.do_go_exec
                0x00000000c000c5c0      0x130 arch/mips/cpu/octeon/libocteon.o
                0x00000000c000c5c0                do_go_exec
 .text.do_bootelf_exec
                0x00000000c000c6f0       0x58 arch/mips/cpu/octeon/libocteon.o
                0x00000000c000c6f0                do_bootelf_exec
 .text.timer_init
                0x00000000c000c748       0x3c arch/mips/cpu/octeon/libocteon.o
                0x00000000c000c748                timer_init
 .text.get_timer
                0x00000000c000c784       0x78 arch/mips/cpu/octeon/libocteon.o
                0x00000000c000c784                get_timer
 .text.__udelay
                0x00000000c000c7fc       0x4c arch/mips/cpu/octeon/libocteon.o
                0x00000000c000c7fc                __udelay
 .text.get_ticks
                0x00000000c000c848       0x20 arch/mips/cpu/octeon/libocteon.o
                0x00000000c000c848                get_ticks
 .text.get_tbclk
                0x00000000c000c868        0x8 arch/mips/cpu/octeon/libocteon.o
                0x00000000c000c868                get_tbclk
 .text.octeon_set_one_fdt_mac
                0x00000000c000c870       0x88 arch/mips/cpu/octeon/libocteon.o
 .text.__octeon_fdt_patch_rename
                0x00000000c000c8f8      0x3a4 arch/mips/cpu/octeon/libocteon.o
                0x00000000c000c8f8                __octeon_fdt_patch_rename
                0x00000000c000c8f8                octeon_fdt_patch_rename
 .text.__octeon_fdt_patch
                0x00000000c000cc9c       0x64 arch/mips/cpu/octeon/libocteon.o
                0x00000000c000cc9c                __octeon_fdt_patch
                0x00000000c000cc9c                octeon_fdt_patch
 .text.__octeon_fixup_fdt
                0x00000000c000cd00      0x38c arch/mips/cpu/octeon/libocteon.o
                0x00000000c000cd00                octeon_fixup_fdt
                0x00000000c000cd00                __octeon_fixup_fdt
 .text.break_core_start_app
                0x00000000c000d08c        0xc arch/mips/cpu/octeon/libocteon.o
                0x00000000c000d08c                break_core_start_app
 .text.alloc_tlbs
                0x00000000c000d098      0x144 arch/mips/cpu/octeon/libocteon.o
 .text.unlikely.octeon_setup_crt0_tlb
                0x00000000c000d1dc       0xa4 arch/mips/cpu/octeon/libocteon.o
 .text.octeon_parse_nodes
                0x00000000c000d280       0x8c arch/mips/cpu/octeon/libocteon.o
 .text.get_tlb_mapping_size.part.1
                0x00000000c000d30c       0x4c arch/mips/cpu/octeon/libocteon.o
 .text.octeon_parse_bootopts
                0x00000000c000d358      0x5f0 arch/mips/cpu/octeon/libocteon.o
                0x00000000c000d358                octeon_parse_bootopts
 .text.add_tlb_mapping
                0x00000000c000d948      0x42c arch/mips/cpu/octeon/libocteon.o
                0x00000000c000d948                add_tlb_mapping
 .text.copy_tlb_entry
                0x00000000c000dd74       0xa8 arch/mips/cpu/octeon/libocteon.o
                0x00000000c000dd74                copy_tlb_entry
 .text.mem_set_tlb
                0x00000000c000de1c      0x198 arch/mips/cpu/octeon/libocteon.o
                0x00000000c000de1c                mem_set_tlb
 .text.bl_write_tlb
                0x00000000c000dfb4       0x34 arch/mips/cpu/octeon/libocteon.o
                0x00000000c000dfb4                bl_write_tlb
 .text._start_app
                0x00000000c000dfe8      0x26c arch/mips/cpu/octeon/libocteon.o
 .text.start_app
                0x00000000c000e254        0x8 arch/mips/cpu/octeon/libocteon.o
                0x00000000c000e254                start_app
 .text.start_app_hotplug
                0x00000000c000e25c        0x8 arch/mips/cpu/octeon/libocteon.o
                0x00000000c000e25c                start_app_hotplug
 .text.copy_elf64_header
                0x00000000c000e264       0x6c arch/mips/cpu/octeon/libocteon.o
                0x00000000c000e264                copy_elf64_header
 .text.copy_elf64_section_header
                0x00000000c000e2d0       0x54 arch/mips/cpu/octeon/libocteon.o
                0x00000000c000e2d0                copy_elf64_section_header
 .text.copy_elf64_program_header
                0x00000000c000e324       0x44 arch/mips/cpu/octeon/libocteon.o
                0x00000000c000e324                copy_elf64_program_header
 .text.read_elf_info
                0x00000000c000e368      0x48c arch/mips/cpu/octeon/libocteon.o
                0x00000000c000e368                read_elf_info
 .text.do_bootocteon
                0x00000000c000e7f4      0xe8c arch/mips/cpu/octeon/libocteon.o
                0x00000000c000e7f4                do_bootocteon
 .text.idle_core_start_app
                0x00000000c000f680       0x6c arch/mips/cpu/octeon/libocteon.o
                0x00000000c000f680                idle_core_start_app
 .text.elf_accessors_le16
                0x00000000c000f6ec        0xc arch/mips/cpu/octeon/libocteon.o
 .text.elf_accessors_le32
                0x00000000c000f6f8       0x10 arch/mips/cpu/octeon/libocteon.o
 .text.elf_accessors_be16
                0x00000000c000f708        0x8 arch/mips/cpu/octeon/libocteon.o
 .text.elf_accessors_be32
                0x00000000c000f710        0x8 arch/mips/cpu/octeon/libocteon.o
 .text.elf_accessors_be64
                0x00000000c000f718        0x8 arch/mips/cpu/octeon/libocteon.o
 .text.elf_accessors_le64
                0x00000000c000f720       0x10 arch/mips/cpu/octeon/libocteon.o
 .text.get_elf_accessors
                0x00000000c000f730       0x20 arch/mips/cpu/octeon/libocteon.o
                0x00000000c000f730                get_elf_accessors
 .text.valid_elf_image
                0x00000000c000f750       0xe0 arch/mips/cpu/octeon/libocteon.o
                0x00000000c000f750                valid_elf_image
 .text.load_elf_image
                0x00000000c000f830      0x140 arch/mips/cpu/octeon/libocteon.o
                0x00000000c000f830                load_elf_image
 .text.do_bootvx
                0x00000000c000f970      0x2dc arch/mips/cpu/octeon/libocteon.o
                0x00000000c000f970                do_bootvx
 .text.load_elf64_image
                0x00000000c000fc4c      0x314 arch/mips/cpu/octeon/libocteon.o
                0x00000000c000fc4c                load_elf64_image
 .text.do_bootelf
                0x00000000c000ff60       0xd8 arch/mips/cpu/octeon/libocteon.o
                0x00000000c000ff60                do_bootelf
 .text.do_nmi   0x00000000c0010038      0x1a8 arch/mips/cpu/octeon/libocteon.o
                0x00000000c0010038                do_nmi
 .text.validate_header
                0x00000000c00101e0       0xcc arch/mips/cpu/octeon/libocteon.o
                0x00000000c00101e0                validate_header
 .text.get_image_size
                0x00000000c00102ac       0x48 arch/mips/cpu/octeon/libocteon.o
                0x00000000c00102ac                get_image_size
 .text.validate_data
                0x00000000c00102f4       0x78 arch/mips/cpu/octeon/libocteon.o
                0x00000000c00102f4                validate_data
 .text.do_bootloader_validate
                0x00000000c001036c       0xf0 arch/mips/cpu/octeon/libocteon.o
                0x00000000c001036c                do_bootloader_validate
 .text.do_bootloader_update
                0x00000000c001045c     0x17b0 arch/mips/cpu/octeon/libocteon.o
                0x00000000c001045c                do_bootloader_update
 .text.do_octreginfo
                0x00000000c0011c0c      0x5fc arch/mips/cpu/octeon/libocteon.o
                0x00000000c0011c0c                do_octreginfo
 .text.do_icache_invalidate
                0x00000000c0012208       0x14 arch/mips/cpu/octeon/libocteon.o
                0x00000000c0012208                do_icache_invalidate
 .text.do_dcache_flush
                0x00000000c001221c       0x14 arch/mips/cpu/octeon/libocteon.o
                0x00000000c001221c                do_dcache_flush
 .text.do_flush_l2c
                0x00000000c0012230       0x20 arch/mips/cpu/octeon/libocteon.o
                0x00000000c0012230                do_flush_l2c
 .text.do_bootmem_free_print
                0x00000000c0012250       0x20 arch/mips/cpu/octeon/libocteon.o
                0x00000000c0012250                do_bootmem_free_print
 .text.do_bootmem_named_print
                0x00000000c0012270       0x20 arch/mips/cpu/octeon/libocteon.o
                0x00000000c0012270                do_bootmem_named_print
 .text.do_bootmem_named_free
                0x00000000c0012290       0x6c arch/mips/cpu/octeon/libocteon.o
                0x00000000c0012290                do_bootmem_named_free
 .text.do_bootmem_named_alloc
                0x00000000c00122fc      0x154 arch/mips/cpu/octeon/libocteon.o
                0x00000000c00122fc                do_bootmem_named_alloc
 .text.do_write64l
                0x00000000c0012450       0x88 arch/mips/cpu/octeon/libocteon.o
                0x00000000c0012450                do_write64l
 .text.do_write64s
                0x00000000c00124d8       0x8c arch/mips/cpu/octeon/libocteon.o
                0x00000000c00124d8                do_write64s
 .text.do_write64
                0x00000000c0012564       0xac arch/mips/cpu/octeon/libocteon.o
                0x00000000c0012564                do_write64
 .text.do_read64s
                0x00000000c0012610       0x78 arch/mips/cpu/octeon/libocteon.o
                0x00000000c0012610                do_read64s
 .text.do_write64b
                0x00000000c0012688       0x90 arch/mips/cpu/octeon/libocteon.o
                0x00000000c0012688                do_write64b
 .text.do_read64l
                0x00000000c0012718       0x84 arch/mips/cpu/octeon/libocteon.o
                0x00000000c0012718                do_read64l
 .text.do_read64
                0x00000000c001279c       0x84 arch/mips/cpu/octeon/libocteon.o
                0x00000000c001279c                do_read64
 .text.do_read64b
                0x00000000c0012820       0x8c arch/mips/cpu/octeon/libocteon.o
                0x00000000c0012820                do_read64b
 .text.do_mem_loop64
                0x00000000c00128ac      0x1a4 arch/mips/cpu/octeon/libocteon.o
                0x00000000c00128ac                do_mem_loop64
 .text.do_mem_base64
                0x00000000c0012a50       0x4c arch/mips/cpu/octeon/libocteon.o
                0x00000000c0012a50                do_mem_base64
 .text.do_mem_cmp64
                0x00000000c0012a9c      0x1cc arch/mips/cpu/octeon/libocteon.o
                0x00000000c0012a9c                do_mem_cmp64
 .text.do_mem_cp64
                0x00000000c0012c68      0x160 arch/mips/cpu/octeon/libocteon.o
                0x00000000c0012c68                do_mem_cp64
 .text.mod_mem64.isra.0
                0x00000000c0012dc8      0x260 arch/mips/cpu/octeon/libocteon.o
 .text.do_mem_nm64
                0x00000000c0013028        0x8 arch/mips/cpu/octeon/libocteon.o
                0x00000000c0013028                do_mem_nm64
 .text.do_mem_mm64
                0x00000000c0013030        0x8 arch/mips/cpu/octeon/libocteon.o
                0x00000000c0013030                do_mem_mm64
 .text.print_buffer64
                0x00000000c0013038      0x260 arch/mips/cpu/octeon/libocteon.o
                0x00000000c0013038                print_buffer64
 .text.cmd_get_data_swap64
                0x00000000c0013298       0x40 arch/mips/cpu/octeon/libocteon.o
                0x00000000c0013298                cmd_get_data_swap64
 .text.do_mem_mw64
                0x00000000c00132d8      0x1b0 arch/mips/cpu/octeon/libocteon.o
                0x00000000c00132d8                do_mem_mw64
 .text.do_mem_md64
                0x00000000c0013488      0x144 arch/mips/cpu/octeon/libocteon.o
                0x00000000c0013488                do_mem_md64
 .text.do_bootoctelf
                0x00000000c00135cc      0x58c arch/mips/cpu/octeon/libocteon.o
                0x00000000c00135cc                do_bootoctelf
 .text.setup_linux_app_boot_info
                0x00000000c0013b58      0x130 arch/mips/cpu/octeon/libocteon.o
                0x00000000c0013b58                setup_linux_app_boot_info
 .text.do_bootoctlinux
                0x00000000c0013c88      0x874 arch/mips/cpu/octeon/libocteon.o
                0x00000000c0013c88                do_bootoctlinux
 .text.start_os_common
                0x00000000c00144fc       0xb8 arch/mips/cpu/octeon/libocteon.o
                0x00000000c00144fc                start_os_common
 .text.start_elf
                0x00000000c00145b4       0xc0 arch/mips/cpu/octeon/libocteon.o
                0x00000000c00145b4                start_elf
 .text.start_linux
                0x00000000c0014674       0xe4 arch/mips/cpu/octeon/libocteon.o
                0x00000000c0014674                start_linux
 .text.encode_time
                0x00000000c0014758       0x40 arch/mips/cpu/octeon/libocteon.o
 .text.do_boot_bus_set
                0x00000000c0014798      0x3bc arch/mips/cpu/octeon/libocteon.o
                0x00000000c0014798                do_boot_bus_set
 .text.do_boot_bus_print
                0x00000000c0014b54      0x454 arch/mips/cpu/octeon/libocteon.o
                0x00000000c0014b54                do_boot_bus_print
 .text.do_boot_bus
                0x00000000c0014fa8       0xa0 arch/mips/cpu/octeon/libocteon.o
                0x00000000c0014fa8                do_boot_bus
 .text.md5      0x00000000c0015048      0x1dc arch/mips/cpu/octeon/libocteon.o
                0x00000000c0015048                md5
 .text.md5_wd   0x00000000c0015224        0x8 arch/mips/cpu/octeon/libocteon.o
                0x00000000c0015224                md5_wd
 .text.sha1_update.part.0
                0x00000000c001522c      0x1dc arch/mips/cpu/octeon/libocteon.o
 .text.sha1_starts
                0x00000000c0015408       0x48 arch/mips/cpu/octeon/libocteon.o
                0x00000000c0015408                sha1_starts
 .text.sha1_update
                0x00000000c0015450       0x18 arch/mips/cpu/octeon/libocteon.o
                0x00000000c0015450                sha1_update
 .text.sha1_finish
                0x00000000c0015468      0x168 arch/mips/cpu/octeon/libocteon.o
                0x00000000c0015468                sha1_finish
 .text.sha1_csum_wd
                0x00000000c00155d0       0x6c arch/mips/cpu/octeon/libocteon.o
                0x00000000c00155d0                sha1_csum_wd
 .text.__set_qlm_pcie_mode_61xx
                0x00000000c001563c       0xb4 arch/mips/cpu/octeon/libocteon.o
 .text.__qlm_tune_cn78xx
                0x00000000c00156f0      0x188 arch/mips/cpu/octeon/libocteon.o
 .text.__setup_pem_reset
                0x00000000c0015878       0x6c arch/mips/cpu/octeon/libocteon.o
 .text.__qlm_setup_pll_cn78xx
                0x00000000c00158e4      0x23c arch/mips/cpu/octeon/libocteon.o
 .text.__cvmx_qlm_pcie_errata_cn78xx
                0x00000000c0015b20      0x988 arch/mips/cpu/octeon/libocteon.o
 .text.__dlmx_setup_pcie_cn70xx.isra.0.part.1
                0x00000000c00164a8      0x6ec arch/mips/cpu/octeon/libocteon.o
 .text.__qlm_init_errata_20844
                0x00000000c0016b94      0x140 arch/mips/cpu/octeon/libocteon.o
 .text.__get_lane_mode_for_speed_and_ref_clk
                0x00000000c0016cd4      0x138 arch/mips/cpu/octeon/libocteon.o
 .text.cvmx_qlm_is_ref_clock
                0x00000000c0016e0c       0x64 arch/mips/cpu/octeon/libocteon.o
                0x00000000c0016e0c                cvmx_qlm_is_ref_clock
 .text.__get_qlm_spd
                0x00000000c0016e70      0x158 arch/mips/cpu/octeon/libocteon.o
 .text.octeon_configure_qlm_cn78xx
                0x00000000c0016fc8      0xb48 arch/mips/cpu/octeon/libocteon.o
                0x00000000c0016fc8                octeon_configure_qlm_cn78xx
 .text.octeon_configure_qlm
                0x00000000c0017b10     0x20ac arch/mips/cpu/octeon/libocteon.o
                0x00000000c0017b10                octeon_configure_qlm
 .text.ocx_duplicate_node
                0x00000000c0019bbc       0x60 arch/mips/cpu/octeon/libocteon.o
 .text.ocx_pp_read
                0x00000000c0019c1c       0xb8 arch/mips/cpu/octeon/libocteon.o
 .text.ocx_pp_write
                0x00000000c0019cd4       0x9c arch/mips/cpu/octeon/libocteon.o
 .text.oci_init
                0x00000000c0019d70      0xacc arch/mips/cpu/octeon/libocteon.o
                0x00000000c0019d70                oci_init
 .text.octeon_dram_test
                0x00000000c001a83c        0x8 arch/mips/lib/libmips.o
                0x00000000c001a83c                octeon_dram_test
 .text.octeon_early_console_init_f
                0x00000000c001a844       0x14 arch/mips/lib/libmips.o
 .text.display_banner
                0x00000000c001a858       0x2c arch/mips/lib/libmips.o
 .text.init_baudrate
                0x00000000c001a884       0x60 arch/mips/lib/libmips.o
 .text.__early_uart_init_f
                0x00000000c001a8e4       0x34 arch/mips/lib/libmips.o
                0x00000000c001a8e4                early_uart_init_f
                0x00000000c001a8e4                __early_uart_init_f
 .text.__octeon_setup_clocks
                0x00000000c001a918      0x150 arch/mips/lib/libmips.o
                0x00000000c001a918                __octeon_setup_clocks
                0x00000000c001a918                octeon_setup_clocks
 .text.early_board_init_r
                0x00000000c001aa68        0x8 arch/mips/lib/libmips.o
                0x00000000c001aa68                early_board_init_r
 .text.misc_init_r
                0x00000000c001aa70        0x8 arch/mips/lib/libmips.o
                0x00000000c001aa70                misc_init_r
 .text.board_init_f
                0x00000000c001aa78      0x448 arch/mips/lib/libmips.o
                0x00000000c001aa78                board_init_f
 .text.board_init_r
                0x00000000c001aec0     0x225c arch/mips/lib/libmips.o
                0x00000000c001aec0                board_init_r
 .text.linux_env_set
                0x00000000c001d11c       0xe8 arch/mips/lib/libmips.o
 .text.boot_prep_linux
                0x00000000c001d204      0x2a0 arch/mips/lib/libmips.o
 .text.boot_jump_linux
                0x00000000c001d4a4       0x54 arch/mips/lib/libmips.o
 .text.do_bootm_linux
                0x00000000c001d4f8       0x78 arch/mips/lib/libmips.o
                0x00000000c001d4f8                do_bootm_linux
 .text.octeon_adjust_board_name
                0x00000000c001d570        0x8 board/octeon/common/libocteon.o
                0x00000000c001d570                octeon_adjust_board_name
 .text.__display_board_info
                0x00000000c001d578      0xbf4 board/octeon/common/libocteon.o
                0x00000000c001d578                __display_board_info
                0x00000000c001d578                display_board_info
 .text.late_board_init
                0x00000000c001e16c        0x8 board/octeon/common/libocteon.o
                0x00000000c001e16c                late_board_init
 .text.__octeon_boot_bus_get_range
                0x00000000c001e174      0x13c board/octeon/common/libocteon.o
                0x00000000c001e174                octeon_boot_bus_get_range
                0x00000000c001e174                __octeon_boot_bus_get_range
 .text.do_bdinfo
                0x00000000c001e2b0      0x10c common/libcommon.o
                0x00000000c001e2b0                do_bdinfo
 .text.do_go    0x00000000c001e3bc       0x94 common/libcommon.o
 .text.image_info
                0x00000000c001e450      0x130 common/libcommon.o
 .text.do_bootd
                0x00000000c001e580       0x34 common/libcommon.o
                0x00000000c001e580                do_bootd
 .text.copy_args
                0x00000000c001e5b4       0x8c common/libcommon.o
 .text.do_bootm_rtems
                0x00000000c001e640       0x74 common/libcommon.o
 .text.do_iminfo
                0x00000000c001e6b4       0xb0 common/libcommon.o
 .text.do_bootm_plan9
                0x00000000c001e764       0xf0 common/libcommon.o
 .text.do_bootm_netbsd
                0x00000000c001e854      0x14c common/libcommon.o
 .text.do_bootm_states.isra.15.constprop.16
                0x00000000c001e9a0      0xc1c common/libcommon.o
 .text.do_bootm
                0x00000000c001f5bc      0x118 common/libcommon.o
                0x00000000c001f5bc                do_bootm
 .text.bootm_maybe_autostart
                0x00000000c001f6d4       0x94 common/libcommon.o
                0x00000000c001f6d4                bootm_maybe_autostart
 .text.do_bunzip
                0x00000000c001f768      0x128 common/libcommon.o
 .text.do_coninfo
                0x00000000c001f890      0x11c common/libcommon.o
 .text.do_echo  0x00000000c001f9ac      0x10c common/libcommon.o
 .text.eeprom_read
                0x00000000c001fab8       0xd8 common/libcommon.o
                0x00000000c001fab8                eeprom_read
 .text.eeprom_write
                0x00000000c001fb90       0xd8 common/libcommon.o
                0x00000000c001fb90                eeprom_write
 .text.do_eeprom
                0x00000000c001fc68      0x134 common/libcommon.o
                0x00000000c001fc68                do_eeprom
 .text.fdt_valid
                0x00000000c001fd9c       0xdc common/libcommon.o
 .text.is_printable_string
                0x00000000c001fe78       0xb8 common/libcommon.o
 .text.print_data
                0x00000000c001ff30      0x238 common/libcommon.o
 .text.set_working_fdt_addr
                0x00000000c0020168       0x18 common/libcommon.o
                0x00000000c0020168                set_working_fdt_addr
 .text.do_fdt   0x00000000c0020180      0xfb0 common/libcommon.o
 .text.do_gpio  0x00000000c0021130      0x168 common/libcommon.o
 .text.do_help  0x00000000c0021298       0x3c common/libcommon.o
 .text.get_alen
                0x00000000c00212d4       0x44 common/libcommon.o
 .text.do_i2c   0x00000000c0021318       0xa0 common/libcommon.o
 .text.do_i2c_reset
                0x00000000c00213b8       0x40 common/libcommon.o
 .text.do_i2c_mw
                0x00000000c00213f8      0x120 common/libcommon.o
 .text.do_i2c_read
                0x00000000c0021518       0xf0 common/libcommon.o
 .text.do_i2c_probe
                0x00000000c0021608       0xcc common/libcommon.o
 .text.do_i2c_md
                0x00000000c00216d4      0x224 common/libcommon.o
 .text.do_i2c_crc
                0x00000000c00218f8      0x148 common/libcommon.o
 .text.do_i2c_bus_num
                0x00000000c0021a40       0xd4 common/libcommon.o
                0x00000000c0021a40                do_i2c_bus_num
 .text.do_i2c_bus_speed
                0x00000000c0021b14       0x8c common/libcommon.o
 .text.do_i2c_show_bus
                0x00000000c0021ba0      0x130 common/libcommon.o
                0x00000000c0021ba0                do_i2c_show_bus
 .text.do_i2c_write
                0x00000000c0021cd0      0x140 common/libcommon.o
 .text.do_i2c_loop
                0x00000000c0021e10      0x124 common/libcommon.o
 .text.mod_i2c_mem.isra.4
                0x00000000c0021f34      0x248 common/libcommon.o
 .text.do_i2c_nm
                0x00000000c002217c        0x8 common/libcommon.o
 .text.do_i2c_mm
                0x00000000c0022184        0x8 common/libcommon.o
 .text.i2c_init_board
                0x00000000c002218c        0x8 common/libcommon.o
                0x00000000c002218c                i2c_init_board
 .text.evalexp  0x00000000c0022194       0x94 common/libcommon.o
 .text.binary_test
                0x00000000c0022228      0x1f4 common/libcommon.o
 .text.do_itest
                0x00000000c002241c       0xb8 common/libcommon.o
 .text.bin_data_init
                0x00000000c00224d4       0x1c common/libcommon.o
 .text.k_data_restore
                0x00000000c00224f0       0x34 common/libcommon.o
 .text.load_serial_ymodem
                0x00000000c0022524      0x100 common/libcommon.o
 .text.getcxmodem
                0x00000000c0022624       0x2c common/libcommon.o
 .text.write_record
                0x00000000c0022650       0x4c common/libcommon.o
 .text.do_save_serial
                0x00000000c002269c      0x1d4 common/libcommon.o
                0x00000000c002269c                do_save_serial
 .text.bin_data_char
                0x00000000c0022870       0x28 common/libcommon.o
 .text.chk1.constprop.1
                0x00000000c0022898       0x30 common/libcommon.o
 .text.s1_sendpacket.constprop.2
                0x00000000c00228c8       0x60 common/libcommon.o
 .text.load_serial
                0x00000000c0022928      0x214 common/libcommon.o
 .text.do_load_serial
                0x00000000c0022b3c      0x104 common/libcommon.o
 .text.do_load_serial_bin
                0x00000000c0022c40      0x8f8 common/libcommon.o
 .text.do_md5sum
                0x00000000c0023538      0x178 common/libcommon.o
 .text.do_mem_loop
                0x00000000c00236b0      0x190 common/libcommon.o
 .text.do_mem_base
                0x00000000c0023840       0x4c common/libcommon.o
 .text.do_mem_cmp
                0x00000000c002388c      0x1b4 common/libcommon.o
 .text.do_mem_crc
                0x00000000c0023a40       0xac common/libcommon.o
 .text.do_mem_cp
                0x00000000c0023aec      0x134 common/libcommon.o
 .text.do_mem_mw
                0x00000000c0023c20      0x118 common/libcommon.o
 .text.do_mem_md
                0x00000000c0023d38      0x11c common/libcommon.o
 .text.mod_mem.isra.2
                0x00000000c0023e54      0x20c common/libcommon.o
 .text.do_mem_nm
                0x00000000c0024060        0x8 common/libcommon.o
 .text.do_mem_mm
                0x00000000c0024068        0x8 common/libcommon.o
 .text.board_show_dram
                0x00000000c0024070       0x38 common/libcommon.o
                0x00000000c0024070                board_show_dram
 .text.do_mem_info
                0x00000000c00240a8       0x24 common/libcommon.o
 .text.extract_range
                0x00000000c00240cc       0x6c common/libcommon.o
 .text.do_mii   0x00000000c0024138      0x7dc common/libcommon.o
 .text.do_sleep
                0x00000000c0024914       0x9c common/libcommon.o
 .text.do_ping  0x00000000c00249b0       0x84 common/libcommon.o
 .text.netboot_common
                0x00000000c0024a34      0x364 common/libcommon.o
 .text.do_nfs   0x00000000c0024d98        0xc common/libcommon.o
 .text.do_dhcp  0x00000000c0024da4        0xc common/libcommon.o
 .text.do_tftpsrv
                0x00000000c0024db0        0xc common/libcommon.o
 .text.do_bootp
                0x00000000c0024dbc        0xc common/libcommon.o
 .text.do_tftpput
                0x00000000c0024dc8        0xc common/libcommon.o
                0x00000000c0024dc8                do_tftpput
 .text.do_tftpb
                0x00000000c0024dd4       0x54 common/libcommon.o
                0x00000000c0024dd4                do_tftpb
 .text.do_cdp   0x00000000c0024e28       0xc8 common/libcommon.o
                0x00000000c0024e28                do_cdp
 .text.do_dns   0x00000000c0024ef0       0xb0 common/libcommon.o
                0x00000000c0024ef0                do_dns
 .text.print_active_callback
                0x00000000c0024fa0       0x94 common/libcommon.o
 .text.print_static_binding
                0x00000000c0025034       0x30 common/libcommon.o
 .text.do_env_delete
                0x00000000c0025064       0xf4 common/libcommon.o
 .text.do_env_grep
                0x00000000c0025158      0x128 common/libcommon.o
 .text.env_print
                0x00000000c0025280       0xc0 common/libcommon.o
 .text.do_env_print
                0x00000000c0025340      0x108 common/libcommon.o
 .text.do_env   0x00000000c0025448       0xa0 common/libcommon.o
 .text.do_env_import
                0x00000000c00254e8      0x2a4 common/libcommon.o
 .text.do_env_default
                0x00000000c002578c       0xb8 common/libcommon.o
 .text.do_env_flags
                0x00000000c0025844      0x174 common/libcommon.o
                0x00000000c0025844                do_env_flags
 .text.do_env_callback
                0x00000000c00259b8      0x154 common/libcommon.o
                0x00000000c00259b8                do_env_callback
 .text.print_active_flags
                0x00000000c0025b0c       0x78 common/libcommon.o
 .text.print_static_flags
                0x00000000c0025b84       0x84 common/libcommon.o
 .text._do_env_set.isra.0
                0x00000000c0025c08      0x208 common/libcommon.o
 .text.do_env_set
                0x00000000c0025e10       0x20 common/libcommon.o
 .text.do_env_ask
                0x00000000c0025e30      0x178 common/libcommon.o
                0x00000000c0025e30                do_env_ask
 .text.get_env_id
                0x00000000c0025fa8        0xc common/libcommon.o
                0x00000000c0025fa8                get_env_id
 .text.setenv   0x00000000c0025fb4       0x5c common/libcommon.o
                0x00000000c0025fb4                setenv
 .text.setenv_force
                0x00000000c0026010       0x68 common/libcommon.o
                0x00000000c0026010                setenv_force
 .text.setenv_ulong
                0x00000000c0026078       0x30 common/libcommon.o
                0x00000000c0026078                setenv_ulong
 .text.setenv_hex
                0x00000000c00260a8       0x40 common/libcommon.o
                0x00000000c00260a8                setenv_hex
 .text.do_env_export
                0x00000000c00260e8      0x2e0 common/libcommon.o
 .text.envmatch
                0x00000000c00263c8       0xac common/libcommon.o
                0x00000000c00263c8                envmatch
 .text.getenv_f
                0x00000000c0026474      0x114 common/libcommon.o
                0x00000000c0026474                getenv_f
 .text.getenv   0x00000000c0026588       0x74 common/libcommon.o
                0x00000000c0026588                getenv
 .text.do_env_edit
                0x00000000c00265fc       0x90 common/libcommon.o
 .text.getenv_ulong
                0x00000000c002668c       0x58 common/libcommon.o
                0x00000000c002668c                getenv_ulong
 .text.getenv_hex
                0x00000000c00266e4       0x54 common/libcommon.o
                0x00000000c00266e4                getenv_hex
 .text.get_arg  0x00000000c0026738       0x80 common/libcommon.o
 .text.substitute
                0x00000000c00267b8      0x140 common/libcommon.o
 .text.regex_sub
                0x00000000c00268f8      0x324 common/libcommon.o
 .text.do_setexpr
                0x00000000c0026c1c      0x208 common/libcommon.o
 .text.do_sha1sum
                0x00000000c0026e24       0x40 common/libcommon.o
                0x00000000c0026e24                do_sha1sum
 .text.source   0x00000000c0026e64      0x1e4 common/libcommon.o
                0x00000000c0026e64                source
 .text.do_source
                0x00000000c0027048       0x80 common/libcommon.o
                0x00000000c0027048                do_source
 .text.do_strings
                0x00000000c00270c8      0x10c common/libcommon.o
                0x00000000c00270c8                do_strings
 .text.do_time  0x00000000c00271d4       0xfc common/libcommon.o
 .text.do_unlzma
                0x00000000c00272d0      0x130 common/libcommon.o
 .text.do_unzip
                0x00000000c0027400       0xec common/libcommon.o
 .text.do_version
                0x00000000c00274ec       0x44 common/libcommon.o
 .text.do_imgextract
                0x00000000c0027530      0x424 common/libcommon.o
 .text.find_cmd_tbl
                0x00000000c0027954       0xd0 common/libcommon.o
                0x00000000c0027954                find_cmd_tbl
 .text.find_cmd
                0x00000000c0027a24       0x24 common/libcommon.o
                0x00000000c0027a24                find_cmd
 .text.cmd_usage
                0x00000000c0027a48       0x78 common/libcommon.o
                0x00000000c0027a48                cmd_usage
 .text._do_help
                0x00000000c0027ac0      0x1d0 common/libcommon.o
                0x00000000c0027ac0                _do_help
 .text.var_complete
                0x00000000c0027c90       0x6c common/libcommon.o
                0x00000000c0027c90                var_complete
 .text.cmd_auto_complete
                0x00000000c0027cfc      0x510 common/libcommon.o
                0x00000000c0027cfc                cmd_auto_complete
 .text.cmd_get_data_size
                0x00000000c002820c       0x78 common/libcommon.o
                0x00000000c002820c                cmd_get_data_size
 .text.cmd_process
                0x00000000c0028284      0x14c common/libcommon.o
                0x00000000c0028284                cmd_process
 .text.console_tstc
                0x00000000c00283d0       0xbc common/libcommon.o
 .text.console_putc
                0x00000000c002848c       0x90 common/libcommon.o
 .text.console_puts
                0x00000000c002851c       0x90 common/libcommon.o
 .text.serial_printf
                0x00000000c00285ac       0x54 common/libcommon.o
                0x00000000c00285ac                serial_printf
 .text.on_silent
                0x00000000c0028600        0x8 common/libcommon.o
 .text.fgetc    0x00000000c0028608       0x70 common/libcommon.o
                0x00000000c0028608                fgetc
 .text.fputs    0x00000000c0028678       0x1c common/libcommon.o
                0x00000000c0028678                fputs
 .text.fprintf  0x00000000c0028694       0x5c common/libcommon.o
                0x00000000c0028694                fprintf
 .text.getc     0x00000000c00286f0       0x30 common/libcommon.o
                0x00000000c00286f0                getc
 .text.tstc     0x00000000c0028720       0x30 common/libcommon.o
                0x00000000c0028720                tstc
 .text.putc     0x00000000c0028750       0x3c common/libcommon.o
                0x00000000c0028750                putc
 .text.puts     0x00000000c002878c       0x3c common/libcommon.o
                0x00000000c002878c                puts
 .text.printf   0x00000000c00287c8       0x60 common/libcommon.o
                0x00000000c00287c8                printf
 .text.on_console
                0x00000000c0028828       0xf8 common/libcommon.o
 .text.vprintf  0x00000000c0028920       0x48 common/libcommon.o
                0x00000000c0028920                vprintf
 .text.ctrlc    0x00000000c0028968       0x70 common/libcommon.o
                0x00000000c0028968                ctrlc
 .text.disable_ctrlc
                0x00000000c00289d8       0x10 common/libcommon.o
                0x00000000c00289d8                disable_ctrlc
 .text.had_ctrlc
                0x00000000c00289e8        0xc common/libcommon.o
                0x00000000c00289e8                had_ctrlc
 .text.clear_ctrlc
                0x00000000c00289f4        0xc common/libcommon.o
                0x00000000c00289f4                clear_ctrlc
 .text.search_device
                0x00000000c0028a00       0x44 common/libcommon.o
                0x00000000c0028a00                search_device
 .text.console_assign
                0x00000000c0028a44      0x100 common/libcommon.o
                0x00000000c0028a44                console_assign
 .text.console_init_f
                0x00000000c0028b44       0x44 common/libcommon.o
                0x00000000c0028b44                console_init_f
 .text.console_init_r
                0x00000000c0028b88      0x20c common/libcommon.o
                0x00000000c0028b88                console_init_r
 .text.sbrk     0x00000000c0028d94       0x7c common/libcommon.o
                0x00000000c0028d94                sbrk
 .text.mem_malloc_init
                0x00000000c0028e10       0x20 common/libcommon.o
                0x00000000c0028e10                mem_malloc_init
 .text.malloc_trim
                0x00000000c0028e30       0xf4 common/libcommon.o
                0x00000000c0028e30                malloc_trim
 .text.free     0x00000000c0028f24      0x24c common/libcommon.o
                0x00000000c0028f24                free
 .text.malloc   0x00000000c0029170      0x6a4 common/libcommon.o
                0x00000000c0029170                malloc
 .text.calloc   0x00000000c0029814       0xf8 common/libcommon.o
                0x00000000c0029814                calloc
 .text.realloc  0x00000000c002990c      0x564 common/libcommon.o
                0x00000000c002990c                realloc
 .text.env_attr_walk
                0x00000000c0029e70      0x16c common/libcommon.o
                0x00000000c0029e70                env_attr_walk
 .text.env_attr_lookup
                0x00000000c0029fdc      0x1fc common/libcommon.o
                0x00000000c0029fdc                env_attr_lookup
 .text.clear_callback
                0x00000000c002a1d8        0xc common/libcommon.o
 .text.on_callbacks
                0x00000000c002a1e4       0x60 common/libcommon.o
 .text.set_callback
                0x00000000c002a244       0xf0 common/libcommon.o
 .text.env_callback_init
                0x00000000c002a334      0x110 common/libcommon.o
                0x00000000c002a334                env_callback_init
 .text.__env_get_char_spec
                0x00000000c002a444       0x10 common/libcommon.o
                0x00000000c002a444                env_get_char_spec
 .text.env_get_addr
                0x00000000c002a454       0x28 common/libcommon.o
                0x00000000c002a454                env_get_addr
 .text.env_get_char_memory
                0x00000000c002a47c       0x20 common/libcommon.o
                0x00000000c002a47c                env_get_char_memory
 .text.env_get_char
                0x00000000c002a49c       0x38 common/libcommon.o
                0x00000000c002a49c                env_get_char
 .text.getenv_yesno
                0x00000000c002a4d4       0x54 common/libcommon.o
                0x00000000c002a4d4                getenv_yesno
 .text.getenv_default
                0x00000000c002a528       0x4c common/libcommon.o
                0x00000000c002a528                getenv_default
 .text.set_default_env
                0x00000000c002a574       0xbc common/libcommon.o
                0x00000000c002a574                set_default_env
 .text.set_default_vars
                0x00000000c002a630       0x28 common/libcommon.o
                0x00000000c002a630                set_default_vars
 .text.__env_import
                0x00000000c002a658       0xd8 common/libcommon.o
                0x00000000c002a658                env_import
                0x00000000c002a658                __env_import
 .text.env_relocate
                0x00000000c002a730       0x1c common/libcommon.o
                0x00000000c002a730                env_relocate
 .text.env_complete
                0x00000000c002a74c      0x138 common/libcommon.o
                0x00000000c002a74c                env_complete
 .text.skip_num
                0x00000000c002a884       0x90 common/libcommon.o
 .text.clear_flags
                0x00000000c002a914        0xc common/libcommon.o
 .text.on_flags
                0x00000000c002a920       0x60 common/libcommon.o
 .text.env_flags_print_vartypes
                0x00000000c002a980       0x70 common/libcommon.o
                0x00000000c002a980                env_flags_print_vartypes
 .text.env_flags_print_varaccess
                0x00000000c002a9f0       0x70 common/libcommon.o
                0x00000000c002a9f0                env_flags_print_varaccess
 .text.env_flags_get_vartype_name
                0x00000000c002aa60       0x18 common/libcommon.o
                0x00000000c002aa60                env_flags_get_vartype_name
 .text.env_flags_get_varaccess_name
                0x00000000c002aa78       0x18 common/libcommon.o
                0x00000000c002aa78                env_flags_get_varaccess_name
 .text.env_flags_parse_vartype
                0x00000000c002aa90       0x74 common/libcommon.o
                0x00000000c002aa90                env_flags_parse_vartype
 .text.env_flags_parse_varaccess
                0x00000000c002ab04       0x68 common/libcommon.o
                0x00000000c002ab04                env_flags_parse_varaccess
 .text.set_flags
                0x00000000c002ab6c       0xbc common/libcommon.o
 .text.env_flags_parse_varaccess_from_binflags
                0x00000000c002ac28       0x54 common/libcommon.o
                0x00000000c002ac28                env_flags_parse_varaccess_from_binflags
 .text.env_flags_init
                0x00000000c002ac7c       0xb8 common/libcommon.o
                0x00000000c002ac7c                env_flags_init
 .text.env_flags_validate
                0x00000000c002ad34      0x398 common/libcommon.o
                0x00000000c002ad34                env_flags_validate
 .text.env_relocate_spec
                0x00000000c002b0cc        0x8 common/libcommon.o
                0x00000000c002b0cc                env_relocate_spec
 .text.env_init
                0x00000000c002b0d4       0x1c common/libcommon.o
                0x00000000c002b0d4                env_init
 .text.dummy    0x00000000c002b0f0        0x8 common/libcommon.o
 .text.get_version
                0x00000000c002b0f8        0x8 common/libcommon.o
                0x00000000c002b0f8                get_version
 .text.jumptable_init
                0x00000000c002b100      0x1b4 common/libcommon.o
                0x00000000c002b100                jumptable_init
 .text.fdt_initrd
                0x00000000c002b2b4      0x1f4 common/libcommon.o
                0x00000000c002b2b4                fdt_initrd
 .text.fdt_chosen
                0x00000000c002b4a8      0x144 common/libcommon.o
                0x00000000c002b4a8                fdt_chosen
 .text.fdt_fixup_memory_banks
                0x00000000c002b5ec      0x2a8 common/libcommon.o
                0x00000000c002b5ec                fdt_fixup_memory_banks
 .text.fdt_fixup_memory
                0x00000000c002b894       0x2c common/libcommon.o
                0x00000000c002b894                fdt_fixup_memory
 .text.fdt_resize
                0x00000000c002b8c0       0xd0 common/libcommon.o
                0x00000000c002b8c0                fdt_resize
 .text.show_hash
                0x00000000c002b990       0x8c common/libcommon.o
 .text.find_hash_algo
                0x00000000c002ba1c       0x70 common/libcommon.o
 .text.hash_command
                0x00000000c002ba8c      0x334 common/libcommon.o
                0x00000000c002ba8c                hash_command
 .text.fdt_error
                0x00000000c002bdc0       0x3c common/libcommon.o
 .text.boot_fdt_add_mem_rsv_regions
                0x00000000c002bdfc       0xb8 common/libcommon.o
                0x00000000c002bdfc                boot_fdt_add_mem_rsv_regions
 .text.boot_relocate_fdt
                0x00000000c002beb4      0x1e8 common/libcommon.o
                0x00000000c002beb4                boot_relocate_fdt
 .text.boot_get_fdt
                0x00000000c002c09c      0x3c4 common/libcommon.o
                0x00000000c002c09c                boot_get_fdt
 .text.fit_parse_conf
                0x00000000c002c460       0x88 common/libcommon.o
                0x00000000c002c460                fit_parse_conf
 .text.fit_parse_subimage
                0x00000000c002c4e8       0x88 common/libcommon.o
                0x00000000c002c4e8                fit_parse_subimage
 .text.fit_get_desc
                0x00000000c002c570       0x3c common/libcommon.o
                0x00000000c002c570                fit_get_desc
 .text.fit_get_timestamp
                0x00000000c002c5ac       0x58 common/libcommon.o
                0x00000000c002c5ac                fit_get_timestamp
 .text.fit_image_get_node
                0x00000000c002c604       0x5c common/libcommon.o
                0x00000000c002c604                fit_image_get_node
 .text.fit_image_get_os
                0x00000000c002c660       0x58 common/libcommon.o
                0x00000000c002c660                fit_image_get_os
 .text.fit_image_get_arch
                0x00000000c002c6b8       0x58 common/libcommon.o
                0x00000000c002c6b8                fit_image_get_arch
 .text.fit_image_get_type
                0x00000000c002c710       0x58 common/libcommon.o
                0x00000000c002c710                fit_image_get_type
 .text.fit_image_get_comp
                0x00000000c002c768       0x58 common/libcommon.o
                0x00000000c002c768                fit_image_get_comp
 .text.fit_image_get_load
                0x00000000c002c7c0       0x44 common/libcommon.o
                0x00000000c002c7c0                fit_image_get_load
 .text.fit_image_get_entry
                0x00000000c002c804       0x44 common/libcommon.o
                0x00000000c002c804                fit_image_get_entry
 .text.fit_image_get_data
                0x00000000c002c848       0x5c common/libcommon.o
                0x00000000c002c848                fit_image_get_data
 .text.fit_image_hash_get_algo
                0x00000000c002c8a4       0x3c common/libcommon.o
                0x00000000c002c8a4                fit_image_hash_get_algo
 .text.fit_image_hash_get_value
                0x00000000c002c8e0       0x5c common/libcommon.o
                0x00000000c002c8e0                fit_image_hash_get_value
 .text.fit_image_print_data
                0x00000000c002c93c      0x1d4 common/libcommon.o
 .text.fit_image_print
                0x00000000c002cb10      0x3f0 common/libcommon.o
                0x00000000c002cb10                fit_image_print
 .text.calculate_hash
                0x00000000c002cf00       0xf0 common/libcommon.o
                0x00000000c002cf00                calculate_hash
 .text.fit_image_verify
                0x00000000c002cff0      0x250 common/libcommon.o
                0x00000000c002cff0                fit_image_verify
 .text.fit_all_image_verify
                0x00000000c002d240      0x148 common/libcommon.o
                0x00000000c002d240                fit_all_image_verify
 .text.fit_image_check_os
                0x00000000c002d388       0x3c common/libcommon.o
                0x00000000c002d388                fit_image_check_os
 .text.fit_image_check_arch
                0x00000000c002d3c4       0x3c common/libcommon.o
                0x00000000c002d3c4                fit_image_check_arch
 .text.fit_image_check_type
                0x00000000c002d400       0x3c common/libcommon.o
                0x00000000c002d400                fit_image_check_type
 .text.fit_image_check_comp
                0x00000000c002d43c       0x3c common/libcommon.o
                0x00000000c002d43c                fit_image_check_comp
 .text.fit_check_format
                0x00000000c002d478       0x74 common/libcommon.o
                0x00000000c002d478                fit_check_format
 .text.fit_conf_get_node
                0x00000000c002d4ec       0x90 common/libcommon.o
                0x00000000c002d4ec                fit_conf_get_node
 .text.fit_conf_get_prop_node
                0x00000000c002d57c       0x40 common/libcommon.o
                0x00000000c002d57c                fit_conf_get_prop_node
 .text.fit_conf_print
                0x00000000c002d5bc      0x138 common/libcommon.o
                0x00000000c002d5bc                fit_conf_print
 .text.fit_print_contents
                0x00000000c002d6f4      0x2b0 common/libcommon.o
                0x00000000c002d6f4                fit_print_contents
 .text.fit_image_select
                0x00000000c002d9a4       0x9c common/libcommon.o
                0x00000000c002d9a4                fit_image_select
 .text.fit_get_node_from_config
                0x00000000c002da40       0x64 common/libcommon.o
                0x00000000c002da40                fit_get_node_from_config
 .text.fit_image_load
                0x00000000c002daa4      0x4e0 common/libcommon.o
                0x00000000c002daa4                fit_image_load
 .text.on_loadaddr
                0x00000000c002df84       0x40 common/libcommon.o
 .text.image_check_hcrc
                0x00000000c002dfc4       0x4c common/libcommon.o
                0x00000000c002dfc4                image_check_hcrc
 .text.image_check_dcrc
                0x00000000c002e010       0x3c common/libcommon.o
                0x00000000c002e010                image_check_dcrc
 .text.image_multi_count
                0x00000000c002e04c       0x20 common/libcommon.o
                0x00000000c002e04c                image_multi_count
 .text.image_multi_getimg
                0x00000000c002e06c       0xac common/libcommon.o
                0x00000000c002e06c                image_multi_getimg
 .text.getenv_bootm_low
                0x00000000c002e118       0x3c common/libcommon.o
                0x00000000c002e118                getenv_bootm_low
 .text.getenv_bootm_size
                0x00000000c002e154       0x74 common/libcommon.o
                0x00000000c002e154                getenv_bootm_size
 .text.getenv_bootm_mapsize
                0x00000000c002e1c8       0x3c common/libcommon.o
                0x00000000c002e1c8                getenv_bootm_mapsize
 .text.memmove_wd
                0x00000000c002e204       0x18 common/libcommon.o
                0x00000000c002e204                memmove_wd
 .text.genimg_print_size
                0x00000000c002e21c       0x3c common/libcommon.o
                0x00000000c002e21c                genimg_print_size
 .text.genimg_print_time
                0x00000000c002e258       0x40 common/libcommon.o
                0x00000000c002e258                genimg_print_time
 .text.get_table_entry_name
                0x00000000c002e298       0x34 common/libcommon.o
                0x00000000c002e298                get_table_entry_name
 .text.genimg_get_os_name
                0x00000000c002e2cc       0x18 common/libcommon.o
                0x00000000c002e2cc                genimg_get_os_name
 .text.genimg_get_arch_name
                0x00000000c002e2e4       0x18 common/libcommon.o
                0x00000000c002e2e4                genimg_get_arch_name
 .text.genimg_get_type_name
                0x00000000c002e2fc       0x18 common/libcommon.o
                0x00000000c002e2fc                genimg_get_type_name
 .text.genimg_get_comp_name
                0x00000000c002e314       0x18 common/libcommon.o
                0x00000000c002e314                genimg_get_comp_name
 .text.image_print_contents
                0x00000000c002e32c      0x1ac common/libcommon.o
                0x00000000c002e32c                image_print_contents
 .text.get_table_entry_id
                0x00000000c002e4d8       0x60 common/libcommon.o
                0x00000000c002e4d8                get_table_entry_id
 .text.genimg_get_os_id
                0x00000000c002e538       0x18 common/libcommon.o
                0x00000000c002e538                genimg_get_os_id
 .text.genimg_get_arch_id
                0x00000000c002e550       0x18 common/libcommon.o
                0x00000000c002e550                genimg_get_arch_id
 .text.genimg_get_type_id
                0x00000000c002e568       0x18 common/libcommon.o
                0x00000000c002e568                genimg_get_type_id
 .text.genimg_get_comp_id
                0x00000000c002e580       0x18 common/libcommon.o
                0x00000000c002e580                genimg_get_comp_id
 .text.genimg_get_format
                0x00000000c002e598       0x40 common/libcommon.o
                0x00000000c002e598                genimg_get_format
 .text.genimg_get_image
                0x00000000c002e5d8        0x8 common/libcommon.o
                0x00000000c002e5d8                genimg_get_image
 .text.genimg_has_config
                0x00000000c002e5e0        0xc common/libcommon.o
                0x00000000c002e5e0                genimg_has_config
 .text.boot_get_ramdisk
                0x00000000c002e5ec      0x364 common/libcommon.o
                0x00000000c002e5ec                boot_get_ramdisk
 .text.iomux_doenv
                0x00000000c002e950      0x248 common/libcommon.o
                0x00000000c002e950                iomux_doenv
 .text.delete_char.part.0
                0x00000000c002eb98      0x130 common/libcommon.o
 .text.cread_add_char
                0x00000000c002ecc8      0x134 common/libcommon.o
 .text.__show_boot_progress
                0x00000000c002edfc        0x8 common/libcommon.o
                0x00000000c002edfc                __show_boot_progress
                0x00000000c002edfc                show_boot_progress
 .text.readline_into_buffer
                0x00000000c002ee04      0xab4 common/libcommon.o
                0x00000000c002ee04                readline_into_buffer
 .text.readline
                0x00000000c002f8b8       0x14 common/libcommon.o
                0x00000000c002f8b8                readline
 .text.parse_line
                0x00000000c002f8cc       0xd0 common/libcommon.o
                0x00000000c002f8cc                parse_line
 .text.builtin_run_command
                0x00000000c002f99c      0x3a8 common/libcommon.o
 .text.run_command
                0x00000000c002fd44       0x20 common/libcommon.o
                0x00000000c002fd44                run_command
 .text.run_command_list
                0x00000000c002fd64      0x140 common/libcommon.o
                0x00000000c002fd64                run_command_list
 .text.main_loop
                0x00000000c002fea4      0x35c common/libcommon.o
                0x00000000c002fea4                main_loop
 .text.do_run   0x00000000c0030200       0xb0 common/libcommon.o
                0x00000000c0030200                do_run
 .text.miiphy_get_dev_by_name
                0x00000000c00302b0       0x7c common/libcommon.o
                0x00000000c00302b0                miiphy_get_dev_by_name
 .text.miiphy_set_current_dev
                0x00000000c003032c       0x4c common/libcommon.o
                0x00000000c003032c                miiphy_set_current_dev
 .text.miiphy_get_active_dev
                0x00000000c0030378       0x64 common/libcommon.o
 .text.miiphy_get_current_dev
                0x00000000c00303dc       0x18 common/libcommon.o
                0x00000000c00303dc                miiphy_get_current_dev
 .text.miiphy_read
                0x00000000c00303f4       0x68 common/libcommon.o
                0x00000000c00303f4                miiphy_read
 .text.miiphy_write
                0x00000000c003045c       0x68 common/libcommon.o
                0x00000000c003045c                miiphy_write
 .text.miiphy_listdev
                0x00000000c00304c4       0x9c common/libcommon.o
                0x00000000c00304c4                miiphy_listdev
 .text.miiphy_info
                0x00000000c0030560       0xbc common/libcommon.o
                0x00000000c0030560                miiphy_info
 .text.miiphy_speed
                0x00000000c003061c       0xac common/libcommon.o
                0x00000000c003061c                miiphy_speed
 .text.miiphy_duplex
                0x00000000c00306c8       0xac common/libcommon.o
                0x00000000c00306c8                miiphy_duplex
 .text.miiphy_is_1000base_x
                0x00000000c0030774        0x8 common/libcommon.o
                0x00000000c0030774                miiphy_is_1000base_x
 .text.hex1_bin
                0x00000000c003077c       0x40 common/libcommon.o
 .text.hex2_bin
                0x00000000c00307bc       0x54 common/libcommon.o
 .text.srec_decode
                0x00000000c0030810      0x280 common/libcommon.o
                0x00000000c0030810                srec_decode
 .text.stdio_get_list
                0x00000000c0030a90        0xc common/libcommon.o
                0x00000000c0030a90                stdio_get_list
 .text.stdio_get_by_name
                0x00000000c0030a9c       0x74 common/libcommon.o
                0x00000000c0030a9c                stdio_get_by_name
 .text.stdio_clone
                0x00000000c0030b10       0x60 common/libcommon.o
                0x00000000c0030b10                stdio_clone
 .text.stdio_register
                0x00000000c0030b70       0x54 common/libcommon.o
                0x00000000c0030b70                stdio_register
 .text.stdio_init
                0x00000000c0030bc4       0xa0 common/libcommon.o
                0x00000000c0030bc4                stdio_init
 .text.CYGACC_COMM_IF_GETC_TIMEOUT.isra.1
                0x00000000c0030c64       0x84 common/libcommon.o
 .text.xyzModem_flush
                0x00000000c0030ce8       0x20 common/libcommon.o
 .text.xyzModem_get_hdr
                0x00000000c0030d08      0x2b0 common/libcommon.o
 .text.xyzModem_stream_open
                0x00000000c0030fb8      0x2f0 common/libcommon.o
                0x00000000c0030fb8                xyzModem_stream_open
 .text.xyzModem_stream_read
                0x00000000c00312a8      0x2cc common/libcommon.o
                0x00000000c00312a8                xyzModem_stream_read
 .text.xyzModem_stream_close
                0x00000000c0031574       0x3c common/libcommon.o
                0x00000000c0031574                xyzModem_stream_close
 .text.xyzModem_stream_terminate
                0x00000000c00315b0       0xc0 common/libcommon.o
                0x00000000c00315b0                xyzModem_stream_terminate
 .text.xyzModem_error
                0x00000000c0031670       0x30 common/libcommon.o
                0x00000000c0031670                xyzModem_error
 .text.get_dev  0x00000000c00316a0        0x8 disk/libdisk.o
                0x00000000c00316a0                get_dev
 .text.gpio_in_range
                0x00000000c00316a8       0x94 drivers/gpio/libgpio.o
 .text.gpio_direction_input
                0x00000000c003173c      0x374 drivers/gpio/libgpio.o
                0x00000000c003173c                gpio_direction_input
 .text.gpio_direction_output
                0x00000000c0031ab0      0x6f8 drivers/gpio/libgpio.o
                0x00000000c0031ab0                gpio_direction_output
 .text.gpio_get_value
                0x00000000c00321a8       0x5c drivers/gpio/libgpio.o
                0x00000000c00321a8                gpio_get_value
 .text.gpio_request
                0x00000000c0032204       0x28 drivers/gpio/libgpio.o
                0x00000000c0032204                gpio_request
 .text.gpio_free
                0x00000000c003222c        0x8 drivers/gpio/libgpio.o
                0x00000000c003222c                gpio_free
 .text.octeon_i2c_lost_arb
                0x00000000c0032234       0x44 drivers/i2c/libi2c.o
 .text.octeon_init_i2c_bus
                0x00000000c0032278        0x8 drivers/i2c/libi2c.o
                0x00000000c0032278                octeon_init_i2c_bus
 .text.octeon_i2c_set_bus_speed
                0x00000000c0032280        0x8 drivers/i2c/libi2c.o
 .text.is_i2c_bus_valid
                0x00000000c0032288       0xe0 drivers/i2c/libi2c.o
                0x00000000c0032288                is_i2c_bus_valid
 .text.octeon_i2c_write_sw
                0x00000000c0032368       0x90 drivers/i2c/libi2c.o
 .text.octeon_i2c_write_ctl
                0x00000000c00323f8       0x54 drivers/i2c/libi2c.o
 .text.octeon_i2c_read_sw
                0x00000000c003244c       0x9c drivers/i2c/libi2c.o
 .text.octeon_i2c_read_status
                0x00000000c00324e8       0x4c drivers/i2c/libi2c.o
 .text.octeon_i2c_bus_stop
                0x00000000c0032534       0x84 drivers/i2c/libi2c.o
 .text.octeon_i2c_write_int
                0x00000000c00325b8       0x7c drivers/i2c/libi2c.o
 .text.octeon_i2c_write_data
                0x00000000c0032634       0x54 drivers/i2c/libi2c.o
 .text.octeon_i2c_wait
                0x00000000c0032688       0xc0 drivers/i2c/libi2c.o
 .text.octeon_i2c_start
                0x00000000c0032748      0x158 drivers/i2c/libi2c.o
 .text.octeon_i2c_bus_read.constprop.6
                0x00000000c00328a0      0x188 drivers/i2c/libi2c.o
 .text.octeon_i2c_probe
                0x00000000c0032a28       0x4c drivers/i2c/libi2c.o
                0x00000000c0032a28                octeon_i2c_probe
 .text.octeon_i2c_bus_write
                0x00000000c0032a74      0x188 drivers/i2c/libi2c.o
                0x00000000c0032a74                octeon_i2c_bus_write
 .text.octeon_i2c_write
                0x00000000c0032bfc      0x10c drivers/i2c/libi2c.o
 .text.octeon_i2c_read
                0x00000000c0032d08      0x138 drivers/i2c/libi2c.o
 .text.i2c_get_adapter
                0x00000000c0032e40       0x8c drivers/i2c/libi2c.o
                0x00000000c0032e40                i2c_get_adapter
 .text.i2c_init_bus
                0x00000000c0032ecc       0xc8 drivers/i2c/libi2c.o
 .text.i2c_get_bus_num
                0x00000000c0032f94        0xc drivers/i2c/libi2c.o
                0x00000000c0032f94                i2c_get_bus_num
 .text.i2c_set_bus_num
                0x00000000c0032fa0       0xe4 drivers/i2c/libi2c.o
                0x00000000c0032fa0                i2c_set_bus_num
 .text.i2c_init_all
                0x00000000c0033084       0x20 drivers/i2c/libi2c.o
                0x00000000c0033084                i2c_init_all
 .text.i2c_probe
                0x00000000c00330a4       0x4c drivers/i2c/libi2c.o
                0x00000000c00330a4                i2c_probe
 .text.i2c_read
                0x00000000c00330f0       0x8c drivers/i2c/libi2c.o
                0x00000000c00330f0                i2c_read
 .text.i2c_write
                0x00000000c003317c       0x8c drivers/i2c/libi2c.o
                0x00000000c003317c                i2c_write
 .text.i2c_set_bus_speed
                0x00000000c0033208       0x84 drivers/i2c/libi2c.o
                0x00000000c0033208                i2c_set_bus_speed
 .text.i2c_get_bus_speed
                0x00000000c003328c       0x24 drivers/i2c/libi2c.o
                0x00000000c003328c                i2c_get_bus_speed
 .text.__i2c_init
                0x00000000c00332b0       0x14 drivers/i2c/libi2c.o
                0x00000000c00332b0                __i2c_init
                0x00000000c00332b0                i2c_init
 .text.GregorianDay
                0x00000000c00332c4      0x104 drivers/rtc/librtc.o
                0x00000000c00332c4                GregorianDay
 .text.to_tm    0x00000000c00333c8       0xf4 drivers/rtc/librtc.o
                0x00000000c00333c8                to_tm
 .text.get_current
                0x00000000c00334bc       0x44 drivers/serial/libserial.o
 .text.serial_stdio_init
                0x00000000c0033500       0x94 drivers/serial/libserial.o
                0x00000000c0033500                serial_stdio_init
 .text.serial_init
                0x00000000c0033594       0x20 drivers/serial/libserial.o
                0x00000000c0033594                serial_init
 .text.serial_setbrg
                0x00000000c00335b4       0x20 drivers/serial/libserial.o
                0x00000000c00335b4                serial_setbrg
 .text.on_baudrate
                0x00000000c00335d4      0x11c drivers/serial/libserial.o
 .text.serial_getc
                0x00000000c00336f0       0x20 drivers/serial/libserial.o
                0x00000000c00336f0                serial_getc
 .text.serial_tstc
                0x00000000c0033710       0x20 drivers/serial/libserial.o
                0x00000000c0033710                serial_tstc
 .text.serial_putc
                0x00000000c0033730       0x24 drivers/serial/libserial.o
                0x00000000c0033730                serial_putc
 .text.serial_puts
                0x00000000c0033754       0x24 drivers/serial/libserial.o
                0x00000000c0033754                serial_puts
 .text.octeon_serial_putc
                0x00000000c0033778       0x74 drivers/serial/libserial.o
 .text.octeon_serial_puts
                0x00000000c00337ec       0x34 drivers/serial/libserial.o
 .text.default_serial_console
                0x00000000c0033820        0xc drivers/serial/libserial.o
                0x00000000c0033820                default_serial_console
 .text.octeon_board_poll
                0x00000000c003382c        0x8 drivers/serial/libserial.o
                0x00000000c003382c                octeon_board_poll
 .text.octeon_serial_getc
                0x00000000c0033834       0x8c drivers/serial/libserial.o
 .text.octeon_serial_tstc
                0x00000000c00338c0       0x60 drivers/serial/libserial.o
 .text.octeon_uart_setup2
                0x00000000c0033920      0x100 drivers/serial/libserial.o
                0x00000000c0033920                octeon_uart_setup2
 .text.octeon_uart_setup
                0x00000000c0033a20       0x28 drivers/serial/libserial.o
                0x00000000c0033a20                octeon_uart_setup
 .text.octeon_serial_init
                0x00000000c0033a48       0x54 drivers/serial/libserial.o
 .text.octeon_set_baud
                0x00000000c0033a9c       0xcc drivers/serial/libserial.o
                0x00000000c0033a9c                octeon_set_baud
 .text.octeon_serial_setbrg
                0x00000000c0033b68       0x10 drivers/serial/libserial.o
 .text.fdt_check_header
                0x00000000c0033b78       0x6c lib/libfdt/libfdt.o
                0x00000000c0033b78                fdt_check_header
 .text.fdt_offset_ptr
                0x00000000c0033be4       0x3c lib/libfdt/libfdt.o
                0x00000000c0033be4                fdt_offset_ptr
 .text.fdt_next_tag
                0x00000000c0033c20      0x16c lib/libfdt/libfdt.o
                0x00000000c0033c20                fdt_next_tag
 .text._fdt_check_node_offset
                0x00000000c0033d8c       0x40 lib/libfdt/libfdt.o
                0x00000000c0033d8c                _fdt_check_node_offset
 .text._fdt_check_prop_offset
                0x00000000c0033dcc       0x40 lib/libfdt/libfdt.o
                0x00000000c0033dcc                _fdt_check_prop_offset
 .text.fdt_next_node
                0x00000000c0033e0c       0xfc lib/libfdt/libfdt.o
                0x00000000c0033e0c                fdt_next_node
 .text.fdt_first_subnode
                0x00000000c0033f08       0x3c lib/libfdt/libfdt.o
                0x00000000c0033f08                fdt_first_subnode
 .text.fdt_next_subnode
                0x00000000c0033f44       0x6c lib/libfdt/libfdt.o
                0x00000000c0033f44                fdt_next_subnode
 .text._fdt_find_string
                0x00000000c0033fb0       0x9c lib/libfdt/libfdt.o
                0x00000000c0033fb0                _fdt_find_string
 .text.fdt_move
                0x00000000c003404c       0x74 lib/libfdt/libfdt.o
                0x00000000c003404c                fdt_move
 .text._nextprop
                0x00000000c00340c0       0x90 lib/libfdt/libfdt.o
 .text.fdt_string
                0x00000000c0034150       0x10 lib/libfdt/libfdt.o
                0x00000000c0034150                fdt_string
 .text.fdt_get_mem_rsv
                0x00000000c0034160       0x6c lib/libfdt/libfdt.o
                0x00000000c0034160                fdt_get_mem_rsv
 .text.fdt_num_mem_rsv
                0x00000000c00341cc       0x28 lib/libfdt/libfdt.o
                0x00000000c00341cc                fdt_num_mem_rsv
 .text.fdt_subnode_offset_namelen
                0x00000000c00341f4      0x11c lib/libfdt/libfdt.o
                0x00000000c00341f4                fdt_subnode_offset_namelen
 .text.fdt_subnode_offset
                0x00000000c0034310       0x40 lib/libfdt/libfdt.o
                0x00000000c0034310                fdt_subnode_offset
 .text.fdt_get_name
                0x00000000c0034350       0x88 lib/libfdt/libfdt.o
                0x00000000c0034350                fdt_get_name
 .text.fdt_first_property_offset
                0x00000000c00343d8       0x40 lib/libfdt/libfdt.o
                0x00000000c00343d8                fdt_first_property_offset
 .text.fdt_next_property_offset
                0x00000000c0034418       0x40 lib/libfdt/libfdt.o
                0x00000000c0034418                fdt_next_property_offset
 .text.fdt_get_property_by_offset
                0x00000000c0034458       0x70 lib/libfdt/libfdt.o
                0x00000000c0034458                fdt_get_property_by_offset
 .text.fdt_get_property_namelen
                0x00000000c00344c8       0xf4 lib/libfdt/libfdt.o
                0x00000000c00344c8                fdt_get_property_namelen
 .text.fdt_get_property
                0x00000000c00345bc       0x50 lib/libfdt/libfdt.o
                0x00000000c00345bc                fdt_get_property
 .text.fdt_getprop_namelen
                0x00000000c003460c       0x28 lib/libfdt/libfdt.o
                0x00000000c003460c                fdt_getprop_namelen
 .text.fdt_getprop
                0x00000000c0034634       0x50 lib/libfdt/libfdt.o
                0x00000000c0034634                fdt_getprop
 .text.fdt_get_alias_namelen
                0x00000000c0034684       0x74 lib/libfdt/libfdt.o
                0x00000000c0034684                fdt_get_alias_namelen
 .text.fdt_path_offset
                0x00000000c00346f8      0x12c lib/libfdt/libfdt.o
                0x00000000c00346f8                fdt_path_offset
 .text.fdt_get_alias
                0x00000000c0034824       0x38 lib/libfdt/libfdt.o
                0x00000000c0034824                fdt_get_alias
 .text.fdt_supernode_atdepth_offset
                0x00000000c003485c       0xd4 lib/libfdt/libfdt.o
                0x00000000c003485c                fdt_supernode_atdepth_offset
 .text.fdt_node_depth
                0x00000000c0034930       0x3c lib/libfdt/libfdt.o
                0x00000000c0034930                fdt_node_depth
 .text.fdt_parent_offset
                0x00000000c003496c       0x54 lib/libfdt/libfdt.o
                0x00000000c003496c                fdt_parent_offset
 .text.fdt_stringlist_contains
                0x00000000c00349c0       0xb0 lib/libfdt/libfdt.o
                0x00000000c00349c0                fdt_stringlist_contains
 .text.fdt_node_check_compatible
                0x00000000c0034a70       0x4c lib/libfdt/libfdt.o
                0x00000000c0034a70                fdt_node_check_compatible
 .text.fdt_node_offset_by_compatible
                0x00000000c0034abc       0x98 lib/libfdt/libfdt.o
                0x00000000c0034abc                fdt_node_offset_by_compatible
 .text._fdt_packblocks
                0x00000000c0034b54       0xa4 lib/libfdt/libfdt.o
 .text._fdt_splice
                0x00000000c0034bf8       0x78 lib/libfdt/libfdt.o
 .text._fdt_splice_struct
                0x00000000c0034c70       0x5c lib/libfdt/libfdt.o
 .text._fdt_add_property
                0x00000000c0034ccc      0x14c lib/libfdt/libfdt.o
 .text._fdt_rw_check_header
                0x00000000c0034e18       0xa0 lib/libfdt/libfdt.o
 .text.fdt_add_mem_rsv
                0x00000000c0034eb8       0xa0 lib/libfdt/libfdt.o
                0x00000000c0034eb8                fdt_add_mem_rsv
 .text.fdt_del_mem_rsv
                0x00000000c0034f58       0x98 lib/libfdt/libfdt.o
                0x00000000c0034f58                fdt_del_mem_rsv
 .text.fdt_set_name
                0x00000000c0034ff0       0xbc lib/libfdt/libfdt.o
                0x00000000c0034ff0                fdt_set_name
 .text.fdt_setprop
                0x00000000c00350ac       0xf4 lib/libfdt/libfdt.o
                0x00000000c00350ac                fdt_setprop
 .text.fdt_delprop
                0x00000000c00351a0       0x6c lib/libfdt/libfdt.o
                0x00000000c00351a0                fdt_delprop
 .text.fdt_add_subnode_namelen
                0x00000000c003520c      0x12c lib/libfdt/libfdt.o
                0x00000000c003520c                fdt_add_subnode_namelen
 .text.fdt_add_subnode
                0x00000000c0035338       0x40 lib/libfdt/libfdt.o
                0x00000000c0035338                fdt_add_subnode
 .text.fdt_del_node
                0x00000000c0035378       0x74 lib/libfdt/libfdt.o
                0x00000000c0035378                fdt_del_node
 .text.fdt_open_into
                0x00000000c00353ec      0x1ec lib/libfdt/libfdt.o
                0x00000000c00353ec                fdt_open_into
 .text.fdt_pack
                0x00000000c00355d8       0x68 lib/libfdt/libfdt.o
                0x00000000c00355d8                fdt_pack
 .text.fdt_strerror
                0x00000000c0035640       0x58 lib/libfdt/libfdt.o
                0x00000000c0035640                fdt_strerror
 .text.fdt_setprop_inplace
                0x00000000c0035698       0x5c lib/libfdt/libfdt.o
                0x00000000c0035698                fdt_setprop_inplace
 .text.fdt_nop_property
                0x00000000c00356f4       0x4c lib/libfdt/libfdt.o
                0x00000000c00356f4                fdt_nop_property
 .text._fdt_node_end_offset
                0x00000000c0035740       0x48 lib/libfdt/libfdt.o
                0x00000000c0035740                _fdt_node_end_offset
 .text.fdt_nop_node
                0x00000000c0035788       0x78 lib/libfdt/libfdt.o
                0x00000000c0035788                fdt_nop_node
 .text.addrmap_set_entry
                0x00000000c0035800       0x30 lib/libgeneric.o
                0x00000000c0035800                addrmap_set_entry
 .text.default_bzfree
                0x00000000c0035830       0x18 lib/libgeneric.o
 .text.default_bzalloc
                0x00000000c0035848        0x8 lib/libgeneric.o
 .text.BZ2_bzDecompressInit
                0x00000000c0035850       0xec lib/libgeneric.o
                0x00000000c0035850                BZ2_bzDecompressInit
 .text.BZ2_indexIntoF
                0x00000000c003593c       0x40 lib/libgeneric.o
                0x00000000c003593c                BZ2_indexIntoF
 .text.BZ2_bzDecompress
                0x00000000c003597c      0xdf8 lib/libgeneric.o
                0x00000000c003597c                BZ2_bzDecompress
 .text.BZ2_bzDecompressEnd
                0x00000000c0036774       0xac lib/libgeneric.o
                0x00000000c0036774                BZ2_bzDecompressEnd
 .text.BZ2_bzBuffToBuffDecompress
                0x00000000c0036820      0x108 lib/libgeneric.o
                0x00000000c0036820                BZ2_bzBuffToBuffDecompress
 .text.bz_internal_error
                0x00000000c0036928       0x10 lib/libgeneric.o
                0x00000000c0036928                bz_internal_error
 .text.BZ2_decompress
                0x00000000c0036938     0x2828 lib/libgeneric.o
                0x00000000c0036938                BZ2_decompress
 .text.BZ2_hbCreateDecodeTables
                0x00000000c0039160      0x160 lib/libgeneric.o
                0x00000000c0039160                BZ2_hbCreateDecodeTables
 .text.cyg_crc16
                0x00000000c00392c0       0x50 lib/libgeneric.o
                0x00000000c00392c0                cyg_crc16
 .text.print_size
                0x00000000c0039310      0x11c lib/libgeneric.o
                0x00000000c0039310                print_size
 .text.print_buffer
                0x00000000c003942c      0x270 lib/libgeneric.o
                0x00000000c003942c                print_buffer
 .text.__div64_32
                0x00000000c003969c       0x7c lib/libgeneric.o
                0x00000000c003969c                __div64_32
 .text.fdtdec_get_int
                0x00000000c0039718       0x40 lib/libgeneric.o
                0x00000000c0039718                fdtdec_get_int
 .text.fdtdec_get_config_int
                0x00000000c0039758       0x70 lib/libgeneric.o
                0x00000000c0039758                fdtdec_get_config_int
 .text.fdtdec_get_config_string
                0x00000000c00397c8       0x5c lib/libgeneric.o
                0x00000000c00397c8                fdtdec_get_config_string
 .text.gzfree   0x00000000c0039824        0x8 lib/libgeneric.o
                0x00000000c0039824                gzfree
 .text.gzalloc  0x00000000c003982c       0x10 lib/libgeneric.o
                0x00000000c003982c                gzalloc
 .text.zunzip   0x00000000c003983c      0x14c lib/libgeneric.o
                0x00000000c003983c                zunzip
 .text.gunzip   0x00000000c0039988       0xcc lib/libgeneric.o
                0x00000000c0039988                gunzip
 .text.__hang   0x00000000c0039a54       0x24 lib/libgeneric.o
                0x00000000c0039a54                hang
                0x00000000c0039a54                __hang
 .text.cmpkey   0x00000000c0039a78       0x14 lib/libgeneric.o
 .text._hdelete.isra.1
                0x00000000c0039a8c       0x74 lib/libgeneric.o
 .text.drop_var_from_set.part.2
                0x00000000c0039b00       0x88 lib/libgeneric.o
 .text.match_string
                0x00000000c0039b88       0xe4 lib/libgeneric.o
 .text.match_entry
                0x00000000c0039c6c       0xf4 lib/libgeneric.o
 .text.hcreate_r
                0x00000000c0039d60       0xb4 lib/libgeneric.o
                0x00000000c0039d60                hcreate_r
 .text.hdestroy_r
                0x00000000c0039e14       0x98 lib/libgeneric.o
                0x00000000c0039e14                hdestroy_r
 .text.hmatch_r
                0x00000000c0039eac       0xd4 lib/libgeneric.o
                0x00000000c0039eac                hmatch_r
 .text.hsearch_r
                0x00000000c0039f80      0x4b8 lib/libgeneric.o
                0x00000000c0039f80                hsearch_r
 .text.hdelete_r
                0x00000000c003a438       0xec lib/libgeneric.o
                0x00000000c003a438                hdelete_r
 .text.hexport_r
                0x00000000c003a524      0x2e4 lib/libgeneric.o
                0x00000000c003a524                hexport_r
 .text.himport_r
                0x00000000c003a808      0x3a0 lib/libgeneric.o
                0x00000000c003a808                himport_r
 .text.hwalk_r  0x00000000c003aba8       0x84 lib/libgeneric.o
                0x00000000c003aba8                hwalk_r
 .text.skip_spaces
                0x00000000c003ac2c       0x2c lib/libgeneric.o
                0x00000000c003ac2c                skip_spaces
 .text.strim    0x00000000c003ac58       0x78 lib/libgeneric.o
                0x00000000c003ac58                strim
 .text.lmb_add_region
                0x00000000c003acd0      0x1d4 lib/libgeneric.o
 .text.lmb_init
                0x00000000c003aea4       0x28 lib/libgeneric.o
                0x00000000c003aea4                lmb_init
 .text.lmb_add  0x00000000c003aecc        0x8 lib/libgeneric.o
                0x00000000c003aecc                lmb_add
 .text.lmb_reserve
                0x00000000c003aed4        0x8 lib/libgeneric.o
                0x00000000c003aed4                lmb_reserve
 .text.lmb_overlaps_region
                0x00000000c003aedc       0x5c lib/libgeneric.o
                0x00000000c003aedc                lmb_overlaps_region
 .text.__lmb_alloc_base
                0x00000000c003af38      0x158 lib/libgeneric.o
                0x00000000c003af38                __lmb_alloc_base
 .text.lmb_alloc_base
                0x00000000c003b090       0x58 lib/libgeneric.o
                0x00000000c003b090                lmb_alloc_base
 .text.lmb_alloc
                0x00000000c003b0e8        0x8 lib/libgeneric.o
                0x00000000c003b0e8                lmb_alloc
 .text.__board_lmb_reserve
                0x00000000c003b0f0        0x8 lib/libgeneric.o
                0x00000000c003b0f0                board_lmb_reserve
                0x00000000c003b0f0                __board_lmb_reserve
 .text.__arch_lmb_reserve
                0x00000000c003b0f8        0x8 lib/libgeneric.o
                0x00000000c003b0f8                arch_lmb_reserve
                0x00000000c003b0f8                __arch_lmb_reserve
 .text.string_to_ip
                0x00000000c003b100       0x98 lib/libgeneric.o
                0x00000000c003b100                string_to_ip
 .text.qsort    0x00000000c003b198      0x158 lib/libgeneric.o
                0x00000000c003b198                qsort
 .text.strcmp_compar
                0x00000000c003b2f0        0xc lib/libgeneric.o
                0x00000000c003b2f0                strcmp_compar
 .text.emit     0x00000000c003b2fc       0x30 lib/libgeneric.o
 .text.store_char_in_data
                0x00000000c003b32c       0x30 lib/libgeneric.o
 .text.get_escape_char
                0x00000000c003b35c       0x94 lib/libgeneric.o
 .text.match    0x00000000c003b3f0      0x480 lib/libgeneric.o
 .text.loop_greedy
                0x00000000c003b870       0xd0 lib/libgeneric.o
 .text.loop_non_greedy
                0x00000000c003b940       0xc8 lib/libgeneric.o
 .text.relocate
                0x00000000c003ba08       0x64 lib/libgeneric.o
 .text.fixup_branch.part.0
                0x00000000c003ba6c       0x60 lib/libgeneric.o
 .text.quantifier
                0x00000000c003bacc       0xe0 lib/libgeneric.o
 .text.compile  0x00000000c003bbac      0x414 lib/libgeneric.o
 .text.slre_compile
                0x00000000c003bfc0       0xc8 lib/libgeneric.o
                0x00000000c003bfc0                slre_compile
 .text.slre_match
                0x00000000c003c088       0xb8 lib/libgeneric.o
                0x00000000c003c088                slre_match
 .text.strcpy   0x00000000c003c140       0x24 lib/libgeneric.o
                0x00000000c003c140                strcpy
 .text.strncpy  0x00000000c003c164       0x2c lib/libgeneric.o
                0x00000000c003c164                strncpy
 .text.strcat   0x00000000c003c190       0x3c lib/libgeneric.o
                0x00000000c003c190                strcat
 .text.strcmp   0x00000000c003c1cc       0x2c lib/libgeneric.o
                0x00000000c003c1cc                strcmp
 .text.strncmp  0x00000000c003c1f8       0x40 lib/libgeneric.o
                0x00000000c003c1f8                strncmp
 .text.strchr   0x00000000c003c238       0x34 lib/libgeneric.o
                0x00000000c003c238                strchr
 .text.strlen   0x00000000c003c26c       0x24 lib/libgeneric.o
                0x00000000c003c26c                strlen
 .text.strnlen  0x00000000c003c290       0x30 lib/libgeneric.o
                0x00000000c003c290                strnlen
 .text.strdup   0x00000000c003c2c0       0x60 lib/libgeneric.o
                0x00000000c003c2c0                strdup
 .text.strpbrk  0x00000000c003c320       0x3c lib/libgeneric.o
                0x00000000c003c320                strpbrk
 .text.strsep   0x00000000c003c35c       0x50 lib/libgeneric.o
                0x00000000c003c35c                strsep
 .text.memmove  0x00000000c003c3ac       0x74 lib/libgeneric.o
                0x00000000c003c3ac                memmove
 .text.strstr   0x00000000c003c420       0x98 lib/libgeneric.o
                0x00000000c003c420                strstr
 .text.memchr   0x00000000c003c4b8       0x34 lib/libgeneric.o
                0x00000000c003c4b8                memchr
 .text.udelay   0x00000000c003c4ec       0x68 lib/libgeneric.o
                0x00000000c003c4ec                udelay
 .text.mdelay   0x00000000c003c554       0x34 lib/libgeneric.o
                0x00000000c003c554                mdelay
 .text.put_dec_trunc
                0x00000000c003c588      0x100 lib/libgeneric.o
 .text.put_dec  0x00000000c003c688      0x17c lib/libgeneric.o
 .text.string.isra.0
                0x00000000c003c804       0xdc lib/libgeneric.o
 .text.number.isra.4
                0x00000000c003c8e0      0x2b4 lib/libgeneric.o
 .text.vsnprintf_internal.isra.6
                0x00000000c003cb94      0x730 lib/libgeneric.o
 .text.simple_strtoul
                0x00000000c003d2c4       0xec lib/libgeneric.o
                0x00000000c003d2c4                simple_strtoul
 .text.strict_strtoul
                0x00000000c003d3b0       0xa0 lib/libgeneric.o
                0x00000000c003d3b0                strict_strtoul
 .text.simple_strtol
                0x00000000c003d450       0x3c lib/libgeneric.o
                0x00000000c003d450                simple_strtol
 .text.simple_strtoull
                0x00000000c003d48c       0xf0 lib/libgeneric.o
                0x00000000c003d48c                simple_strtoull
 .text.vsprintf
                0x00000000c003d57c        0x8 lib/libgeneric.o
                0x00000000c003d57c                vsprintf
 .text.sprintf  0x00000000c003d584       0x38 lib/libgeneric.o
                0x00000000c003d584                sprintf
 .text.panic    0x00000000c003d5bc       0x60 lib/libgeneric.o
                0x00000000c003d5bc                panic
 .text.simple_itoa
                0x00000000c003d61c       0x54 lib/libgeneric.o
                0x00000000c003d61c                simple_itoa
 .text.LzmaDec_WriteRem
                0x00000000c003d670       0xa4 lib/lzma/liblzma.o
 .text.LzmaDec_DecodeReal2
                0x00000000c003d714      0xeec lib/lzma/liblzma.o
 .text.LzmaDec_TryDummy
                0x00000000c003e600      0x700 lib/lzma/liblzma.o
 .text.LzmaDec_Init
                0x00000000c003ed00       0x24 lib/lzma/liblzma.o
                0x00000000c003ed00                LzmaDec_Init
 .text.LzmaDec_DecodeToDic
                0x00000000c003ed24      0x3c0 lib/lzma/liblzma.o
                0x00000000c003ed24                LzmaDec_DecodeToDic
 .text.LzmaDec_FreeProbs
                0x00000000c003f0e4       0x34 lib/lzma/liblzma.o
                0x00000000c003f0e4                LzmaDec_FreeProbs
 .text.LzmaDec_AllocateProbs2
                0x00000000c003f118       0x90 lib/lzma/liblzma.o
 .text.LzmaProps_Decode
                0x00000000c003f1a8       0xa0 lib/lzma/liblzma.o
                0x00000000c003f1a8                LzmaProps_Decode
 .text.LzmaDec_AllocateProbs
                0x00000000c003f248       0x70 lib/lzma/liblzma.o
                0x00000000c003f248                LzmaDec_AllocateProbs
 .text.LzmaDecode
                0x00000000c003f2b8      0x11c lib/lzma/liblzma.o
                0x00000000c003f2b8                LzmaDecode
 .text.SzFree   0x00000000c003f3d4        0x8 lib/lzma/liblzma.o
 .text.SzAlloc  0x00000000c003f3dc        0x8 lib/lzma/liblzma.o
 .text.lzmaBuffToBuffDecompress
                0x00000000c003f3e4       0xfc lib/lzma/liblzma.o
                0x00000000c003f3e4                lzmaBuffToBuffDecompress
 .text.zcfree   0x00000000c003f4e0        0x8 lib/zlib/libz.o
                0x00000000c003f4e0                zcfree
 .text.zcalloc  0x00000000c003f4e8        0x8 lib/zlib/libz.o
                0x00000000c003f4e8                zcalloc
 .text.inflate_fast
                0x00000000c003f4f0      0x58c lib/zlib/libz.o
                0x00000000c003f4f0                inflate_fast
 .text.inflate_table
                0x00000000c003fa7c      0x4c8 lib/zlib/libz.o
                0x00000000c003fa7c                inflate_table
 .text.inflateReset
                0x00000000c003ff44       0x74 lib/zlib/libz.o
                0x00000000c003ff44                inflateReset
 .text.inflateInit2_
                0x00000000c003ffb8      0x120 lib/zlib/libz.o
                0x00000000c003ffb8                inflateInit2_
 .text.inflateEnd
                0x00000000c00400d8       0x78 lib/zlib/libz.o
                0x00000000c00400d8                inflateEnd
 .text.adler32  0x00000000c0040150      0x31c lib/zlib/libz.o
                0x00000000c0040150                adler32
 .text.inflate  0x00000000c004046c     0x174c lib/zlib/libz.o
                0x00000000c004046c                inflate
 .text.ArpInit  0x00000000c0041bb8       0x38 net/libnet.o
                0x00000000c0041bb8                ArpInit
 .text.arp_raw_request
                0x00000000c0041bf0       0xe8 net/libnet.o
                0x00000000c0041bf0                arp_raw_request
 .text.ArpRequest
                0x00000000c0041cd8       0x88 net/libnet.o
                0x00000000c0041cd8                ArpRequest
 .text.ArpTimeoutCheck
                0x00000000c0041d60       0x94 net/libnet.o
                0x00000000c0041d60                ArpTimeoutCheck
 .text.DhcpOptionsProcess
                0x00000000c0041df4      0x284 net/libnet.o
 .text.DhcpHandler
                0x00000000c0042078      0x484 net/libnet.o
 .text.BootpRequest
                0x00000000c00424fc      0x26c net/libnet.o
                0x00000000c00424fc                BootpRequest
 .text.BootpTimeout
                0x00000000c0042768       0x4c net/libnet.o
 .text.DhcpRequest
                0x00000000c00427b4        0x8 net/libnet.o
                0x00000000c00427b4                DhcpRequest
 .text.CDP_compute_csum
                0x00000000c00427bc       0xd0 net/libnet.o
 .text.CDPSendTrigger
                0x00000000c004288c       0xc4 net/libnet.o
 .text.CDPTimeout
                0x00000000c0042950       0x60 net/libnet.o
 .text.CDPStart
                0x00000000c00429b0       0x60 net/libnet.o
                0x00000000c00429b0                CDPStart
 .text.DnsTimeout
                0x00000000c0042a10       0x2c net/libnet.o
 .text.DnsHandler
                0x00000000c0042a3c      0x214 net/libnet.o
 .text.DnsStart
                0x00000000c0042c50      0x148 net/libnet.o
                0x00000000c0042c50                DnsStart
 .text.eth_save_packet
                0x00000000c0042d98       0x84 net/libnet.o
 .text.eth_current_changed
                0x00000000c0042e1c       0x80 net/libnet.o
 .text.eth_parse_enetaddr
                0x00000000c0042e9c       0x88 net/libnet.o
                0x00000000c0042e9c                eth_parse_enetaddr
 .text.eth_getenv_enetaddr
                0x00000000c0042f24       0x6c net/libnet.o
                0x00000000c0042f24                eth_getenv_enetaddr
 .text.eth_getenv_enetaddr_by_index
                0x00000000c0042f90       0x54 net/libnet.o
                0x00000000c0042f90                eth_getenv_enetaddr_by_index
 .text.eth_get_dev_index
                0x00000000c0042fe4       0x20 net/libnet.o
                0x00000000c0042fe4                eth_get_dev_index
 .text.eth_halt
                0x00000000c0043004       0x40 net/libnet.o
                0x00000000c0043004                eth_halt
 .text.eth_send
                0x00000000c0043044       0x28 net/libnet.o
                0x00000000c0043044                eth_send
 .text.eth_rx   0x00000000c004306c       0x24 net/libnet.o
                0x00000000c004306c                eth_rx
 .text.eth_receive
                0x00000000c0043090       0xec net/libnet.o
                0x00000000c0043090                eth_receive
 .text.eth_try_another
                0x00000000c004317c       0x9c net/libnet.o
                0x00000000c004317c                eth_try_another
 .text.eth_init
                0x00000000c0043218       0xf0 net/libnet.o
                0x00000000c0043218                eth_init
 .text.eth_set_current
                0x00000000c0043308       0xd0 net/libnet.o
                0x00000000c0043308                eth_set_current
 .text.eth_get_name
                0x00000000c00433d8       0x20 net/libnet.o
                0x00000000c00433d8                eth_get_name
 .text.startAgainTimeout
                0x00000000c00433f8       0x10 net/libnet.o
 .text.dummy_handler
                0x00000000c0043408        0x8 net/libnet.o
 .text.net_clear_handlers
                0x00000000c0043410       0x24 net/libnet.o
 .text.net_auto_load
                0x00000000c0043434       0x78 net/libnet.o
                0x00000000c0043434                net_auto_load
 .text.NetStartAgain
                0x00000000c00434ac      0x15c net/libnet.o
                0x00000000c00434ac                NetStartAgain
 .text.net_set_udp_handler
                0x00000000c0043608       0x20 net/libnet.o
                0x00000000c0043608                net_set_udp_handler
 .text.net_set_icmp_handler
                0x00000000c0043628        0xc net/libnet.o
                0x00000000c0043628                net_set_icmp_handler
 .text.NetSetTimeout
                0x00000000c0043634       0x64 net/libnet.o
                0x00000000c0043634                NetSetTimeout
 .text.NetCksum
                0x00000000c0043698       0x38 net/libnet.o
                0x00000000c0043698                NetCksum
 .text.NetEthHdrSize
                0x00000000c00436d0       0x30 net/libnet.o
                0x00000000c00436d0                NetEthHdrSize
 .text.NetSetEther
                0x00000000c0043700       0x98 net/libnet.o
                0x00000000c0043700                NetSetEther
 .text.net_set_ip_header
                0x00000000c0043798       0x7c net/libnet.o
                0x00000000c0043798                net_set_ip_header
 .text.net_set_udp_header
                0x00000000c0043814       0x9c net/libnet.o
                0x00000000c0043814                net_set_udp_header
 .text.NetSendUDPPacket
                0x00000000c00438b0      0x124 net/libnet.o
                0x00000000c00438b0                NetSendUDPPacket
 .text.copy_filename
                0x00000000c00439d4       0x54 net/libnet.o
                0x00000000c00439d4                copy_filename
 .text.on_bootfile
                0x00000000c0043a28       0x38 net/libnet.o
 .text.random_port
                0x00000000c0043a60       0x24 net/libnet.o
                0x00000000c0043a60                random_port
 .text.ip_to_string
                0x00000000c0043a84       0x24 net/libnet.o
                0x00000000c0043a84                ip_to_string
 .text.VLAN_to_string
                0x00000000c0043aa8       0x34 net/libnet.o
                0x00000000c0043aa8                VLAN_to_string
 .text.string_to_VLAN
                0x00000000c0043adc       0x50 net/libnet.o
                0x00000000c0043adc                string_to_VLAN
 .text.getenv_VLAN
                0x00000000c0043b2c       0x20 net/libnet.o
                0x00000000c0043b2c                getenv_VLAN
 .text.NetInitLoop
                0x00000000c0043b4c      0x120 net/libnet.o
 .text.net_init
                0x00000000c0043c6c       0x74 net/libnet.o
                0x00000000c0043c6c                net_init
 .text.NetLoop  0x00000000c0043ce0      0x404 net/libnet.o
                0x00000000c0043ce0                NetLoop
 .text.basename
                0x00000000c00440e4       0x50 net/libnet.o
 .text.rpc_add_credentials
                0x00000000c0044134       0xd0 net/libnet.o
 .text.rpc_lookup_reply
                0x00000000c0044204       0xac net/libnet.o
 .text.nfs_mount_reply
                0x00000000c00442b0       0x94 net/libnet.o
 .text.nfs_umountall_reply
                0x00000000c0044344       0x88 net/libnet.o
 .text.nfs_lookup_reply
                0x00000000c00443cc       0x88 net/libnet.o
 .text.rpc_req  0x00000000c0044454       0xec net/libnet.o
 .text.rpc_lookup_req
                0x00000000c0044540       0x50 net/libnet.o
 .text.nfs_mount_req
                0x00000000c0044590       0xb4 net/libnet.o
 .text.nfs_umountall_req
                0x00000000c0044644       0x5c net/libnet.o
 .text.nfs_lookup_req
                0x00000000c00446a0       0xd4 net/libnet.o
 .text.nfs_read_req
                0x00000000c0044774       0x80 net/libnet.o
 .text.nfs_readlink_req
                0x00000000c00447f4       0x5c net/libnet.o
 .text.nfs_readlink_reply
                0x00000000c0044850       0xfc net/libnet.o
 .text.NfsSend  0x00000000c004494c       0x98 net/libnet.o
 .text.nfs_read_reply.isra.1
                0x00000000c00449e4      0x158 net/libnet.o
 .text.NfsHandler
                0x00000000c0044b3c      0x258 net/libnet.o
 .text.NfsTimeout
                0x00000000c0044d94       0x78 net/libnet.o
 .text.NfsStart
                0x00000000c0044e0c      0x248 net/libnet.o
                0x00000000c0044e0c                NfsStart
 .text.ping_timeout
                0x00000000c0045054       0x28 net/libnet.o
 .text.ping_start
                0x00000000c004507c      0x118 net/libnet.o
                0x00000000c004507c                ping_start
 .text.new_transfer
                0x00000000c0045194       0x24 net/libnet.o
 .text.icmp_handler
                0x00000000c00451b8       0x48 net/libnet.o
 .text.TftpSend
                0x00000000c0045200      0x25c net/libnet.o
 .text.tftp_complete
                0x00000000c004545c       0xcc net/libnet.o
 .text.update_block_number
                0x00000000c0045528      0x130 net/libnet.o
 .text.TftpHandler
                0x00000000c0045658      0x408 net/libnet.o
 .text.TftpTimeout
                0x00000000c0045a60       0x8c net/libnet.o
 .text.TftpStart
                0x00000000c0045aec      0x3b8 net/libnet.o
                0x00000000c0045aec                TftpStart
 .text.TftpStartServer
                0x00000000c0045ea4       0xf0 net/libnet.o
                0x00000000c0045ea4                TftpStartServer
 .text.checkboard
                0x00000000c0045f94      0x3c4 board/octeon/sim/libsim.o
                0x00000000c0045f94                checkboard
 .text.board_fdt_init_f
                0x00000000c0046358       0x7c board/octeon/sim/libsim.o
                0x00000000c0046358                board_fdt_init_f
 .text.board_fdt_get_limits
                0x00000000c00463d4       0xa8 board/octeon/sim/libsim.o
                0x00000000c00463d4                board_fdt_get_limits
 .text.board_fixup_fdt
                0x00000000c004647c      0x1f0 board/octeon/sim/libsim.o
                0x00000000c004647c                board_fixup_fdt
 .text.board_early_init_f
                0x00000000c004666c        0x8 board/octeon/sim/libsim.o
                0x00000000c004666c                board_early_init_f
 .text.early_board_init
                0x00000000c0046674       0x94 board/octeon/sim/libsim.o
                0x00000000c0046674                early_board_init
 *(.data_in_text.*)
                0x00000000c0000000                uboot_start = _start
                0x00000000c0046708                . = ALIGN (0x8)

.rodata         0x00000000c0046710    0x20eb0
 *(.rodata)
 .rodata        0x00000000c0046710       0x90 arch/mips/cpu/octeon/libocteon.o
 .rodata        0x00000000c00467a0      0x100 common/libcommon.o
 .rodata        0x00000000c00468a0       0x30 drivers/rtc/librtc.o
 .rodata        0x00000000c00468d0       0x20 net/libnet.o
 .rodata        0x00000000c00468f0     0x5f90 board/octeon/sim/libsim.o
                0x00000000c00468f0                __dtb_begin
                0x00000000c0047ea9                __dtb_end
                0x00000000c0047eb0                __dtb_68xx_begin
                0x00000000c00496c2                __dtb_68xx_end
                0x00000000c00496c8                __dtb_78xx_begin
                0x00000000c004c87c                __dtb_78xx_end
 *(.rodata.*)
 .rodata.str1.8
                0x00000000c004c880       0x7a api/libapi.o
                                         0x88 (size before relaxing)
 *fill*         0x00000000c004c8fa        0x6 
 .rodata.__func__.4433
                0x00000000c004c900       0x10 api/libapi.o
 .rodata.str1.8
                0x00000000c004c910     0x27f6 arch/mips/cpu/octeon/cvmx/libcvmx.o
                                       0x2aa0 (size before relaxing)
 *fill*         0x00000000c004f106        0x2 
 .rodata._cvmx_bootvector_data
                0x00000000c004f108       0x80 arch/mips/cpu/octeon/cvmx/libcvmx.o
 .rodata.CSWTCH.96
                0x00000000c004f188        0x8 arch/mips/cpu/octeon/cvmx/libcvmx.o
 .rodata.CSWTCH.16
                0x00000000c004f190       0xc0 arch/mips/cpu/octeon/cvmx/libcvmx.o
 .rodata.cvmx_qlm_get_gbaud_mhz_node
                0x00000000c004f250       0x30 arch/mips/cpu/octeon/cvmx/libcvmx.o
 .rodata.cvmx_qlm_measure_clock_cn78xx
                0x00000000c004f280       0x30 arch/mips/cpu/octeon/cvmx/libcvmx.o
 .rodata.CSWTCH.74
                0x00000000c004f2b0        0x8 arch/mips/cpu/octeon/cvmx/libcvmx.o
 .rodata.CSWTCH.97
                0x00000000c004f2b8       0x20 arch/mips/cpu/octeon/cvmx/libcvmx.o
 .rodata.CSWTCH.99
                0x00000000c004f2d8       0x10 arch/mips/cpu/octeon/cvmx/libcvmx.o
 .rodata.CSWTCH.101
                0x00000000c004f2e8       0x20 arch/mips/cpu/octeon/cvmx/libcvmx.o
 .rodata.__cvmx_qlm_jtag_field_cn68xx
                0x00000000c004f308      0x430 arch/mips/cpu/octeon/cvmx/libcvmx.o
                0x00000000c004f308                __cvmx_qlm_jtag_field_cn68xx
 .rodata.__cvmx_qlm_jtag_field_cn66xx
                0x00000000c004f738      0x448 arch/mips/cpu/octeon/cvmx/libcvmx.o
                0x00000000c004f738                __cvmx_qlm_jtag_field_cn66xx
 .rodata.__cvmx_qlm_jtag_field_cn63xx
                0x00000000c004fb80      0x420 arch/mips/cpu/octeon/cvmx/libcvmx.o
                0x00000000c004fb80                __cvmx_qlm_jtag_field_cn63xx
 .rodata.__cvmx_qlm_jtag_field_cn52xx
                0x00000000c004ffa0      0x358 arch/mips/cpu/octeon/cvmx/libcvmx.o
                0x00000000c004ffa0                __cvmx_qlm_jtag_field_cn52xx
 .rodata.__cvmx_qlm_jtag_field_cn56xx
                0x00000000c00502f8      0x358 arch/mips/cpu/octeon/cvmx/libcvmx.o
                0x00000000c00502f8                __cvmx_qlm_jtag_field_cn56xx
 .rodata.str1.8
                0x00000000c0050650     0xc37e arch/mips/cpu/octeon/libocteon.o
                                       0xd448 (size before relaxing)
 *fill*         0x00000000c005c9ce        0x2 
 .rodata.__func__.132851
                0x00000000c005c9d0       0x20 arch/mips/cpu/octeon/libocteon.o
 .rodata.__func__.132963
                0x00000000c005c9f0       0x10 arch/mips/cpu/octeon/libocteon.o
 .rodata.__func__.133009
                0x00000000c005ca00       0x18 arch/mips/cpu/octeon/libocteon.o
 .rodata.__func__.133027
                0x00000000c005ca18       0x20 arch/mips/cpu/octeon/libocteon.o
 .rodata.__func__.132769
                0x00000000c005ca38       0x20 arch/mips/cpu/octeon/libocteon.o
 .rodata.__func__.132836
                0x00000000c005ca58       0x18 arch/mips/cpu/octeon/libocteon.o
 .rodata.__func__.132543
                0x00000000c005ca70       0x10 arch/mips/cpu/octeon/libocteon.o
 .rodata.__func__.132095
                0x00000000c005ca80       0x10 arch/mips/cpu/octeon/libocteon.o
 .rodata.__func__.132345
                0x00000000c005ca90       0x10 arch/mips/cpu/octeon/libocteon.o
 .rodata.COP0_REGS
                0x00000000c005caa0      0x1f8 arch/mips/cpu/octeon/libocteon.o
 .rodata.timing_mult_table
                0x00000000c005cc98        0x8 arch/mips/cpu/octeon/libocteon.o
 .rodata.page_size_table
                0x00000000c005cca0        0x8 arch/mips/cpu/octeon/libocteon.o
 .rodata.sha1_padding
                0x00000000c005cca8       0x40 arch/mips/cpu/octeon/libocteon.o
 .rodata.__cvmx_qlm_pcie_errata_cn78xx
                0x00000000c005cce8       0x14 arch/mips/cpu/octeon/libocteon.o
 .rodata.octeon_configure_qlm_cn78xx
                0x00000000c005ccfc       0x80 arch/mips/cpu/octeon/libocteon.o
 .rodata.octeon_configure_qlm
                0x00000000c005cd7c      0x100 arch/mips/cpu/octeon/libocteon.o
 *fill*         0x00000000c005ce7c        0x4 
 .rodata.def_ref_clk_cn78xx
                0x00000000c005ce80       0x10 arch/mips/cpu/octeon/libocteon.o
 .rodata.refclk_settings_cn78xx
                0x00000000c005ce90      0x5a0 arch/mips/cpu/octeon/libocteon.o
 .rodata.__func__.132344
                0x00000000c005d430       0x20 arch/mips/cpu/octeon/libocteon.o
 .rodata.__func__.132213
                0x00000000c005d450       0x18 arch/mips/cpu/octeon/libocteon.o
 .rodata.refclk_settings_sata
                0x00000000c005d468       0x78 arch/mips/cpu/octeon/libocteon.o
 .rodata.sata_clkdiv_table
                0x00000000c005d4e0        0x8 arch/mips/cpu/octeon/libocteon.o
 .rodata.__func__.132416
                0x00000000c005d4e8       0x20 arch/mips/cpu/octeon/libocteon.o
 .rodata.str1.8
                0x00000000c005d508      0x67f arch/mips/lib/libmips.o
                                       0x14a0 (size before relaxing)
 *fill*         0x00000000c005db87        0x1 
 .rodata.version_string
                0x00000000c005db88       0x38 arch/mips/lib/libmips.o
                0x00000000c005db88                version_string
 .rodata.image_size.134361
                0x00000000c005dbc0        0x4 arch/mips/lib/libmips.o
 *fill*         0x00000000c005dbc4        0x4 
 .rodata.str1.8
                0x00000000c005dbc8      0x908 board/octeon/common/libocteon.o
                                       0x16a8 (size before relaxing)
 .rodata._en.131260
                0x00000000c005e4d0       0x20 board/octeon/common/libocteon.o
 .rodata.str1.8
                0x00000000c005e4f0     0x609a common/libcommon.o
                                       0x6c30 (size before relaxing)
 *fill*         0x00000000c006458a        0x6 
 .rodata.boot_os
                0x00000000c0064590       0x60 common/libcommon.o
 .rodata.do_fdt
                0x00000000c00645f0       0x24 common/libcommon.o
 .rodata.binary_test
                0x00000000c0064614       0x30 common/libcommon.o
 *fill*         0x00000000c0064644        0x4 
 .rodata.op_table
                0x00000000c0064648       0x68 common/libcommon.o
 .rodata.reg_0_5_desc_tbl
                0x00000000c00646b0       0x30 common/libcommon.o
 .rodata.desc_and_len_tbl
                0x00000000c00646e0       0x30 common/libcommon.o
 .rodata.reg_0_desc_tbl
                0x00000000c0064710       0x78 common/libcommon.o
 .rodata.reg_1_desc_tbl
                0x00000000c0064788       0xc0 common/libcommon.o
 .rodata.reg_2_desc_tbl
                0x00000000c0064848       0x10 common/libcommon.o
 .rodata.reg_3_desc_tbl
                0x00000000c0064858       0x28 common/libcommon.o
 .rodata.reg_4_desc_tbl
                0x00000000c0064880       0x90 common/libcommon.o
 .rodata.reg_5_desc_tbl
                0x00000000c0064910       0x90 common/libcommon.o
 .rodata.__func__.4886
                0x00000000c00649a0       0x10 common/libcommon.o
 .rodata.__func__.4852
                0x00000000c00649b0       0x10 common/libcommon.o
 .rodata.CSWTCH.63
                0x00000000c00649c0       0x18 common/libcommon.o
 .rodata.delims.4443
                0x00000000c00649d8        0x8 common/libcommon.o
 .rodata.default_environment
                0x00000000c00649e0       0xf8 common/libcommon.o
                0x00000000c00649e0                default_environment
 .rodata.__func__.4571
                0x00000000c0064ad8       0x10 common/libcommon.o
 .rodata.__func__.4582
                0x00000000c0064ae8       0x10 common/libcommon.o
 .rodata.env_flags_validate
                0x00000000c0064af8       0x18 common/libcommon.o
 .rodata.env_flags_vartype_rep
                0x00000000c0064b10        0x8 common/libcommon.o
 .rodata.env_flags_vartype_names
                0x00000000c0064b18       0x18 common/libcommon.o
 .rodata.env_flags_varaccess_rep
                0x00000000c0064b30        0x8 common/libcommon.o
 .rodata.env_flags_varaccess_names
                0x00000000c0064b38       0x10 common/libcommon.o
 .rodata.env_flags_varaccess_mask
                0x00000000c0064b48       0x10 common/libcommon.o
 .rodata.__FUNCTION__.4569
                0x00000000c0064b58       0x18 common/libcommon.o
 .rodata.uimage_os
                0x00000000c0064b70       0x60 common/libcommon.o
 .rodata.uimage_arch
                0x00000000c0064bd0      0x108 common/libcommon.o
 .rodata.uimage_type
                0x00000000c0064cd8       0xd0 common/libcommon.o
 .rodata.uimage_comp
                0x00000000c0064da8       0x48 common/libcommon.o
 .rodata.readline_into_buffer
                0x00000000c0064df0       0x20 common/libcommon.o
 .rodata.erase_seq
                0x00000000c0064e10        0x8 common/libcommon.o
 .rodata.tab_seq
                0x00000000c0064e18       0x10 common/libcommon.o
 .rodata.srec_decode
                0x00000000c0064e28       0x28 common/libcommon.o
 .rodata.CSWTCH.31
                0x00000000c0064e50       0x20 common/libcommon.o
 .rodata.str1.8
                0x00000000c0064e70      0x12d drivers/i2c/libi2c.o
                                        0x130 (size before relaxing)
 *fill*         0x00000000c0064f9d        0x3 
 .rodata.__func__.131446
                0x00000000c0064fa0       0x18 drivers/i2c/libi2c.o
 .rodata.__func__.131428
                0x00000000c0064fb8       0x10 drivers/i2c/libi2c.o
 .rodata.__func__.131408
                0x00000000c0064fc8       0x18 drivers/i2c/libi2c.o
 .rodata.__func__.131347
                0x00000000c0064fe0       0x10 drivers/i2c/libi2c.o
 .rodata.str1.8
                0x00000000c0064ff0       0x60 drivers/serial/libserial.o
                                         0xb8 (size before relaxing)
 .rodata.baudrate_table
                0x00000000c0065050       0x48 drivers/serial/libserial.o
 .rodata.fdt_next_tag
                0x00000000c0065098       0x24 lib/libfdt/libfdt.o
 *fill*         0x00000000c00650bc        0x4 
 .rodata.str1.8
                0x00000000c00650c0      0x122 lib/libfdt/libfdt.o
                                        0x168 (size before relaxing)
 *fill*         0x00000000c00651e2        0x6 
 .rodata.fdt_errtable
                0x00000000c00651e8       0x38 lib/libfdt/libfdt.o
 .rodata.str1.8
                0x00000000c0065220      0x816 lib/libgeneric.o
                                        0x8d8 (size before relaxing)
 *fill*         0x00000000c0065a36        0x2 
 .rodata.BZ2_decompress
                0x00000000c0065a38       0xa4 lib/libgeneric.o
 *fill*         0x00000000c0065adc        0x4 
 .rodata.crc16_tab
                0x00000000c0065ae0      0x200 lib/libgeneric.o
 .rodata._ctype
                0x00000000c0065ce0      0x100 lib/libgeneric.o
                0x00000000c0065ce0                _ctype
 .rodata.names.131261
                0x00000000c0065de0        0x8 lib/libgeneric.o
 .rodata.match  0x00000000c0065de8       0x48 lib/libgeneric.o
 .rodata.hex_asc
                0x00000000c0065e30       0x18 lib/libgeneric.o
 .rodata.digits.4459
                0x00000000c0065e48       0x10 lib/libgeneric.o
 .rodata.str1.8
                0x00000000c0065e58      0x275 lib/zlib/libz.o
                                        0x280 (size before relaxing)
 *fill*         0x00000000c00660cd        0x3 
 .rodata.inflate
                0x00000000c00660d0       0x74 lib/zlib/libz.o
 *fill*         0x00000000c0066144        0x4 
 .rodata.lbase.4732
                0x00000000c0066148       0x40 lib/zlib/libz.o
 .rodata.dbase.4734
                0x00000000c0066188       0x40 lib/zlib/libz.o
 .rodata.lext.4733
                0x00000000c00661c8       0x40 lib/zlib/libz.o
 .rodata.dext.4735
                0x00000000c0066208       0x40 lib/zlib/libz.o
 .rodata.lenfix
                0x00000000c0066248      0x800 lib/zlib/libz.o
 .rodata.distfix
                0x00000000c0066a48       0x80 lib/zlib/libz.o
 .rodata.order.4828
                0x00000000c0066ac8       0x28 lib/zlib/libz.o
 .rodata.str1.8
                0x00000000c0066af0      0x9c5 net/libnet.o
                                        0xbe0 (size before relaxing)
 *fill*         0x00000000c00674b5        0x3 
 .rodata.NetCDPAddr
                0x00000000c00674b8        0x8 net/libnet.o
                0x00000000c00674b8                NetCDPAddr
 .rodata.CDP_SNAP_hdr
                0x00000000c00674c0        0x8 net/libnet.o
 .rodata.NetLoop
                0x00000000c00674c8       0x6c net/libnet.o
 .rodata.NfsSend
                0x00000000c0067534       0x1c net/libnet.o
 .rodata.NfsHandler
                0x00000000c0067550       0x1c net/libnet.o
 .rodata.TftpSend
                0x00000000c006756c       0x1c net/libnet.o
 .rodata.TftpHandler
                0x00000000c0067588       0x14 net/libnet.o
 *fill*         0x00000000c006759c        0x4 
 .rodata.str1.8
                0x00000000c00675a0       0x20 board/octeon/sim/libsim.o
                                         0x38 (size before relaxing)

.rel.dyn        0x00000000c00675c0       0x38
 .rel.dyn       0x00000000c00675c0       0x38 arch/mips/cpu/octeon/libocteon.o
                0x00000000c00675f8                . = ALIGN (0x8)

.data           0x00000000c0067600     0x29fa
 *(.data)
 *(.data.*)
 .data.specs    0x00000000c0067600       0x68 api/libapi.o
 .data.cur_exception_base
                0x00000000c0067668        0x4 arch/mips/cpu/octeon/libocteon.o
                0x00000000c0067668                cur_exception_base
 *fill*         0x00000000c006766c        0x4 
 .data.le_elf_accessors
                0x00000000c0067670       0x10 arch/mips/cpu/octeon/libocteon.o
 .data.be_elf_accessors
                0x00000000c0067680       0x10 arch/mips/cpu/octeon/libocteon.o
 .data.base_address64
                0x00000000c0067690        0x8 arch/mips/cpu/octeon/libocteon.o
                0x00000000c0067690                base_address64
 .data.dp_last_length
                0x00000000c0067698        0x8 arch/mips/cpu/octeon/libocteon.o
 .data.ref_clk_cn78xx
                0x00000000c00676a0      0x180 arch/mips/cpu/octeon/libocteon.o
 .data.init_sequence
                0x00000000c0067820       0x58 arch/mips/lib/libmips.o
                0x00000000c0067820                init_sequence
 *fill*         0x00000000c0067878        0x8 
 .data.cmd_bootm_sub
                0x00000000c0067880      0x100 common/libcommon.o
 .data.bootm_help_text
                0x00000000c0067980      0x498 common/libcommon.o
 .data.root.131328
                0x00000000c0067e18        0x8 common/libcommon.o
 .data.tabs.131411
                0x00000000c0067e20       0x28 common/libcommon.o
 .data.fdt_help_text
                0x00000000c0067e48      0x5e8 common/libcommon.o
 *fill*         0x00000000c0068430       0x10 
 .data.cmd_i2c_sub
                0x00000000c0068440      0x1a0 common/libcommon.o
 .data.i2c_dp_last_length
                0x00000000c00685e0        0x4 common/libcommon.o
 *fill*         0x00000000c00685e4        0x4 
 .data.i2c_help_text
                0x00000000c00685e8      0x338 common/libcommon.o
 .data.do_echo  0x00000000c0068920        0x4 common/libcommon.o
 .data.dp_last_length
                0x00000000c0068924        0x4 common/libcommon.o
 .data.env_id   0x00000000c0068928        0x4 common/libcommon.o
 *fill*         0x00000000c006892c       0x14 
 .data.cmd_env_sub
                0x00000000c0068940      0x180 common/libcommon.o
 .data.env_help_text
                0x00000000c0068ac0      0x2f0 common/libcommon.o
 .data.source_help_text
                0x00000000c0068db0       0xb0 common/libcommon.o
 .data.imgextract_help_text
                0x00000000c0068e60       0xb8 common/libcommon.o
 .data.av_      0x00000000c0068f18      0x408 common/libcommon.o
 .data.sbrk_base
                0x00000000c0069320        0x4 common/libcommon.o
 .data.trim_threshold
                0x00000000c0069324        0x4 common/libcommon.o
 .data.env_htab
                0x00000000c0069328       0x10 common/libcommon.o
                0x00000000c0069328                env_htab
 .data.hash_algo
                0x00000000c0069338       0x20 common/libcommon.o
 .data.load_addr
                0x00000000c0069358        0x4 common/libcommon.o
                0x00000000c0069358                load_addr
 .data.hist_cur
                0x00000000c006935c        0x4 common/libcommon.o
 .data.stdio_names
                0x00000000c0069360       0x10 common/libcommon.o
                0x00000000c0069360                stdio_names
 .data.month_days
                0x00000000c0069370       0x30 drivers/rtc/librtc.o
 .data.octeon_serial0_device
                0x00000000c00693a0       0x30 drivers/serial/libserial.o
                0x00000000c00693a0                octeon_serial0_device
 .data.BZ2_crc32Table
                0x00000000c00693d0      0x400 lib/libgeneric.o
                0x00000000c00693d0                BZ2_crc32Table
 .data.BZ2_rNums
                0x00000000c00697d0      0x800 lib/libgeneric.o
                0x00000000c00697d0                BZ2_rNums
 .data.NetOurNativeVLAN
                0x00000000c0069fd0        0x2 net/libnet.o
                0x00000000c0069fd0                NetOurNativeVLAN
 .data.NetOurVLAN
                0x00000000c0069fd2        0x2 net/libnet.o
                0x00000000c0069fd2                NetOurVLAN
 *fill*         0x00000000c0069fd4        0x4 
 .data.NetBcastAddr
                0x00000000c0069fd8        0x8 net/libnet.o
                0x00000000c0069fd8                NetBcastAddr
 .data.first_call.4658
                0x00000000c0069fe0        0x4 net/libnet.o
 .data.nfs_offset
                0x00000000c0069fe4        0x4 net/libnet.o
 .data.TftpRRQTimeoutCountMax
                0x00000000c0069fe8        0x4 net/libnet.o
                0x00000000c0069fe8                TftpRRQTimeoutCountMax
 .data.TftpBlkSizeOption
                0x00000000c0069fec        0x2 net/libnet.o
 *fill*         0x00000000c0069fee        0x2 
 .data.TftpTimeoutMSecs
                0x00000000c0069ff0        0x4 net/libnet.o
 .data.TftpTimeoutCountMax
                0x00000000c0069ff4        0x4 net/libnet.o
 .data.TftpBlkSize
                0x00000000c0069ff8        0x2 net/libnet.o
                0x00000000c006a000                _gp = ALIGN (0x10)

.got.plt        0x00000000c0069ffa        0x0
 .got.plt       0x0000000000000000        0x0 arch/mips/cpu/octeon/libocteon.o
                0x00000000c006a000                . = ALIGN (0x10)
                0x00000000c006a000                __got_start = .

.got            0x00000000c006a000       0x14
 *(.got)
 .got           0x00000000c006a000       0x14 arch/mips/cpu/octeon/libocteon.o
                0x00000000c006a000                _GLOBAL_OFFSET_TABLE_
                0x00000000c006a014                __got_end = .
                0x0000000000000005                num_got_entries = ((__got_end - __got_start) >> 0x2)
                0x00000000c006a018                . = ALIGN (0x8)

.sdata
 *(.sdata)
 *(.sdata.*)
                0x00000000c006a018                . = ALIGN (0x8)

.u_boot_list    0x00000000c006a018      0xd48
 *(SORT(.u_boot_list*))
 .u_boot_list_2_cmd_1
                0x00000000c006a018        0x0 common/libcommon.o
 .u_boot_list_2_cmd_2_askenv
                0x00000000c006a018       0x20 common/libcommon.o
                0x00000000c006a018                _u_boot_list_2_cmd_2_askenv
 .u_boot_list_2_cmd_2_base
                0x00000000c006a038       0x20 common/libcommon.o
                0x00000000c006a038                _u_boot_list_2_cmd_2_base
 .u_boot_list_2_cmd_2_base64
                0x00000000c006a058       0x20 arch/mips/cpu/octeon/libocteon.o
                0x00000000c006a058                _u_boot_list_2_cmd_2_base64
 .u_boot_list_2_cmd_2_bdinfo
                0x00000000c006a078       0x20 common/libcommon.o
                0x00000000c006a078                _u_boot_list_2_cmd_2_bdinfo
 .u_boot_list_2_cmd_2_boot
                0x00000000c006a098       0x20 common/libcommon.o
                0x00000000c006a098                _u_boot_list_2_cmd_2_boot
 .u_boot_list_2_cmd_2_bootd
                0x00000000c006a0b8       0x20 common/libcommon.o
                0x00000000c006a0b8                _u_boot_list_2_cmd_2_bootd
 .u_boot_list_2_cmd_2_bootelf
                0x00000000c006a0d8       0x20 arch/mips/cpu/octeon/libocteon.o
                0x00000000c006a0d8                _u_boot_list_2_cmd_2_bootelf
 .u_boot_list_2_cmd_2_bootloaderupdate
                0x00000000c006a0f8       0x20 arch/mips/cpu/octeon/libocteon.o
                0x00000000c006a0f8                _u_boot_list_2_cmd_2_bootloaderupdate
 .u_boot_list_2_cmd_2_bootloadervalidate
                0x00000000c006a118       0x20 arch/mips/cpu/octeon/libocteon.o
                0x00000000c006a118                _u_boot_list_2_cmd_2_bootloadervalidate
 .u_boot_list_2_cmd_2_bootm
                0x00000000c006a138       0x20 common/libcommon.o
                0x00000000c006a138                _u_boot_list_2_cmd_2_bootm
 .u_boot_list_2_cmd_2_bootoct
                0x00000000c006a158       0x20 arch/mips/cpu/octeon/libocteon.o
                0x00000000c006a158                _u_boot_list_2_cmd_2_bootoct
 .u_boot_list_2_cmd_2_bootoctelf
                0x00000000c006a178       0x20 arch/mips/cpu/octeon/libocteon.o
                0x00000000c006a178                _u_boot_list_2_cmd_2_bootoctelf
 .u_boot_list_2_cmd_2_bootoctlinux
                0x00000000c006a198       0x20 arch/mips/cpu/octeon/libocteon.o
                0x00000000c006a198                _u_boot_list_2_cmd_2_bootoctlinux
 .u_boot_list_2_cmd_2_bootp
                0x00000000c006a1b8       0x20 common/libcommon.o
                0x00000000c006a1b8                _u_boot_list_2_cmd_2_bootp
 .u_boot_list_2_cmd_2_bootvx
                0x00000000c006a1d8       0x20 arch/mips/cpu/octeon/libocteon.o
                0x00000000c006a1d8                _u_boot_list_2_cmd_2_bootvx
 .u_boot_list_2_cmd_2_bunzip
                0x00000000c006a1f8       0x20 common/libcommon.o
                0x00000000c006a1f8                _u_boot_list_2_cmd_2_bunzip
 .u_boot_list_2_cmd_2_cdp
                0x00000000c006a218       0x20 common/libcommon.o
                0x00000000c006a218                _u_boot_list_2_cmd_2_cdp
 .u_boot_list_2_cmd_2_cmp
                0x00000000c006a238       0x20 common/libcommon.o
                0x00000000c006a238                _u_boot_list_2_cmd_2_cmp
 .u_boot_list_2_cmd_2_cmp64
                0x00000000c006a258       0x20 arch/mips/cpu/octeon/libocteon.o
                0x00000000c006a258                _u_boot_list_2_cmd_2_cmp64
 .u_boot_list_2_cmd_2_coninfo
                0x00000000c006a278       0x20 common/libcommon.o
                0x00000000c006a278                _u_boot_list_2_cmd_2_coninfo
 .u_boot_list_2_cmd_2_cp
                0x00000000c006a298       0x20 common/libcommon.o
                0x00000000c006a298                _u_boot_list_2_cmd_2_cp
 .u_boot_list_2_cmd_2_cp64
                0x00000000c006a2b8       0x20 arch/mips/cpu/octeon/libocteon.o
                0x00000000c006a2b8                _u_boot_list_2_cmd_2_cp64
 .u_boot_list_2_cmd_2_crc32
                0x00000000c006a2d8       0x20 common/libcommon.o
                0x00000000c006a2d8                _u_boot_list_2_cmd_2_crc32
 .u_boot_list_2_cmd_2_dhcp
                0x00000000c006a2f8       0x20 common/libcommon.o
                0x00000000c006a2f8                _u_boot_list_2_cmd_2_dhcp
 .u_boot_list_2_cmd_2_dns
                0x00000000c006a318       0x20 common/libcommon.o
                0x00000000c006a318                _u_boot_list_2_cmd_2_dns
 .u_boot_list_2_cmd_2_echo
                0x00000000c006a338       0x20 common/libcommon.o
                0x00000000c006a338                _u_boot_list_2_cmd_2_echo
 .u_boot_list_2_cmd_2_editenv
                0x00000000c006a358       0x20 common/libcommon.o
                0x00000000c006a358                _u_boot_list_2_cmd_2_editenv
 .u_boot_list_2_cmd_2_eeprom
                0x00000000c006a378       0x20 common/libcommon.o
                0x00000000c006a378                _u_boot_list_2_cmd_2_eeprom
 .u_boot_list_2_cmd_2_env
                0x00000000c006a398       0x20 common/libcommon.o
                0x00000000c006a398                _u_boot_list_2_cmd_2_env
 .u_boot_list_2_cmd_2_fdt
                0x00000000c006a3b8       0x20 common/libcommon.o
                0x00000000c006a3b8                _u_boot_list_2_cmd_2_fdt
 .u_boot_list_2_cmd_2_flush_dcache
                0x00000000c006a3d8       0x20 arch/mips/cpu/octeon/libocteon.o
                0x00000000c006a3d8                _u_boot_list_2_cmd_2_flush_dcache
 .u_boot_list_2_cmd_2_flush_l2c
                0x00000000c006a3f8       0x20 arch/mips/cpu/octeon/libocteon.o
                0x00000000c006a3f8                _u_boot_list_2_cmd_2_flush_l2c
 .u_boot_list_2_cmd_2_freeprint
                0x00000000c006a418       0x20 arch/mips/cpu/octeon/libocteon.o
                0x00000000c006a418                _u_boot_list_2_cmd_2_freeprint
 .u_boot_list_2_cmd_2_go
                0x00000000c006a438       0x20 common/libcommon.o
                0x00000000c006a438                _u_boot_list_2_cmd_2_go
 .u_boot_list_2_cmd_2_gpio
                0x00000000c006a458       0x20 common/libcommon.o
                0x00000000c006a458                _u_boot_list_2_cmd_2_gpio
 .u_boot_list_2_cmd_2_grepenv
                0x00000000c006a478       0x20 common/libcommon.o
                0x00000000c006a478                _u_boot_list_2_cmd_2_grepenv
 .u_boot_list_2_cmd_2_help
                0x00000000c006a498       0x20 common/libcommon.o
                0x00000000c006a498                _u_boot_list_2_cmd_2_help
 .u_boot_list_2_cmd_2_i2c
                0x00000000c006a4b8       0x20 common/libcommon.o
                0x00000000c006a4b8                _u_boot_list_2_cmd_2_i2c
 .u_boot_list_2_cmd_2_iminfo
                0x00000000c006a4d8       0x20 common/libcommon.o
                0x00000000c006a4d8                _u_boot_list_2_cmd_2_iminfo
 .u_boot_list_2_cmd_2_imxtract
                0x00000000c006a4f8       0x20 common/libcommon.o
                0x00000000c006a4f8                _u_boot_list_2_cmd_2_imxtract
 .u_boot_list_2_cmd_2_inv_icache
                0x00000000c006a518       0x20 arch/mips/cpu/octeon/libocteon.o
                0x00000000c006a518                _u_boot_list_2_cmd_2_inv_icache
 .u_boot_list_2_cmd_2_itest
                0x00000000c006a538       0x20 common/libcommon.o
                0x00000000c006a538                _u_boot_list_2_cmd_2_itest
 .u_boot_list_2_cmd_2_loadb
                0x00000000c006a558       0x20 common/libcommon.o
                0x00000000c006a558                _u_boot_list_2_cmd_2_loadb
 .u_boot_list_2_cmd_2_loads
                0x00000000c006a578       0x20 common/libcommon.o
                0x00000000c006a578                _u_boot_list_2_cmd_2_loads
 .u_boot_list_2_cmd_2_loadx
                0x00000000c006a598       0x20 common/libcommon.o
                0x00000000c006a598                _u_boot_list_2_cmd_2_loadx
 .u_boot_list_2_cmd_2_loady
                0x00000000c006a5b8       0x20 common/libcommon.o
                0x00000000c006a5b8                _u_boot_list_2_cmd_2_loady
 .u_boot_list_2_cmd_2_loop
                0x00000000c006a5d8       0x20 common/libcommon.o
                0x00000000c006a5d8                _u_boot_list_2_cmd_2_loop
 .u_boot_list_2_cmd_2_loop64
                0x00000000c006a5f8       0x20 arch/mips/cpu/octeon/libocteon.o
                0x00000000c006a5f8                _u_boot_list_2_cmd_2_loop64
 .u_boot_list_2_cmd_2_md
                0x00000000c006a618       0x20 common/libcommon.o
                0x00000000c006a618                _u_boot_list_2_cmd_2_md
 .u_boot_list_2_cmd_2_md5sum
                0x00000000c006a638       0x20 common/libcommon.o
                0x00000000c006a638                _u_boot_list_2_cmd_2_md5sum
 .u_boot_list_2_cmd_2_md64
                0x00000000c006a658       0x20 arch/mips/cpu/octeon/libocteon.o
                0x00000000c006a658                _u_boot_list_2_cmd_2_md64
 .u_boot_list_2_cmd_2_meminfo
                0x00000000c006a678       0x20 common/libcommon.o
                0x00000000c006a678                _u_boot_list_2_cmd_2_meminfo
 .u_boot_list_2_cmd_2_mii
                0x00000000c006a698       0x20 common/libcommon.o
                0x00000000c006a698                _u_boot_list_2_cmd_2_mii
 .u_boot_list_2_cmd_2_mm
                0x00000000c006a6b8       0x20 common/libcommon.o
                0x00000000c006a6b8                _u_boot_list_2_cmd_2_mm
 .u_boot_list_2_cmd_2_mm64
                0x00000000c006a6d8       0x20 arch/mips/cpu/octeon/libocteon.o
                0x00000000c006a6d8                _u_boot_list_2_cmd_2_mm64
 .u_boot_list_2_cmd_2_mw
                0x00000000c006a6f8       0x20 common/libcommon.o
                0x00000000c006a6f8                _u_boot_list_2_cmd_2_mw
 .u_boot_list_2_cmd_2_mw64
                0x00000000c006a718       0x20 arch/mips/cpu/octeon/libocteon.o
                0x00000000c006a718                _u_boot_list_2_cmd_2_mw64
 .u_boot_list_2_cmd_2_namedalloc
                0x00000000c006a738       0x20 arch/mips/cpu/octeon/libocteon.o
                0x00000000c006a738                _u_boot_list_2_cmd_2_namedalloc
 .u_boot_list_2_cmd_2_namedfree
                0x00000000c006a758       0x20 arch/mips/cpu/octeon/libocteon.o
                0x00000000c006a758                _u_boot_list_2_cmd_2_namedfree
 .u_boot_list_2_cmd_2_namedprint
                0x00000000c006a778       0x20 arch/mips/cpu/octeon/libocteon.o
                0x00000000c006a778                _u_boot_list_2_cmd_2_namedprint
 .u_boot_list_2_cmd_2_nfs
                0x00000000c006a798       0x20 common/libcommon.o
                0x00000000c006a798                _u_boot_list_2_cmd_2_nfs
 .u_boot_list_2_cmd_2_nm
                0x00000000c006a7b8       0x20 common/libcommon.o
                0x00000000c006a7b8                _u_boot_list_2_cmd_2_nm
 .u_boot_list_2_cmd_2_nm64
                0x00000000c006a7d8       0x20 arch/mips/cpu/octeon/libocteon.o
                0x00000000c006a7d8                _u_boot_list_2_cmd_2_nm64
 .u_boot_list_2_cmd_2_nmi
                0x00000000c006a7f8       0x20 arch/mips/cpu/octeon/libocteon.o
                0x00000000c006a7f8                _u_boot_list_2_cmd_2_nmi
 .u_boot_list_2_cmd_2_octbootbus
                0x00000000c006a818       0x20 arch/mips/cpu/octeon/libocteon.o
                0x00000000c006a818                _u_boot_list_2_cmd_2_octbootbus
 .u_boot_list_2_cmd_2_octreginfo
                0x00000000c006a838       0x20 arch/mips/cpu/octeon/libocteon.o
                0x00000000c006a838                _u_boot_list_2_cmd_2_octreginfo
 .u_boot_list_2_cmd_2_ping
                0x00000000c006a858       0x20 common/libcommon.o
                0x00000000c006a858                _u_boot_list_2_cmd_2_ping
 .u_boot_list_2_cmd_2_printenv
                0x00000000c006a878       0x20 common/libcommon.o
                0x00000000c006a878                _u_boot_list_2_cmd_2_printenv
 .u_boot_list_2_cmd_2_question_mark
                0x00000000c006a898       0x20 common/libcommon.o
                0x00000000c006a898                _u_boot_list_2_cmd_2_question_mark
 .u_boot_list_2_cmd_2_read64
                0x00000000c006a8b8       0x20 arch/mips/cpu/octeon/libocteon.o
                0x00000000c006a8b8                _u_boot_list_2_cmd_2_read64
 .u_boot_list_2_cmd_2_read64b
                0x00000000c006a8d8       0x20 arch/mips/cpu/octeon/libocteon.o
                0x00000000c006a8d8                _u_boot_list_2_cmd_2_read64b
 .u_boot_list_2_cmd_2_read64l
                0x00000000c006a8f8       0x20 arch/mips/cpu/octeon/libocteon.o
                0x00000000c006a8f8                _u_boot_list_2_cmd_2_read64l
 .u_boot_list_2_cmd_2_read64s
                0x00000000c006a918       0x20 arch/mips/cpu/octeon/libocteon.o
                0x00000000c006a918                _u_boot_list_2_cmd_2_read64s
 .u_boot_list_2_cmd_2_reset
                0x00000000c006a938       0x20 common/libcommon.o
                0x00000000c006a938                _u_boot_list_2_cmd_2_reset
 .u_boot_list_2_cmd_2_run
                0x00000000c006a958       0x20 common/libcommon.o
                0x00000000c006a958                _u_boot_list_2_cmd_2_run
 .u_boot_list_2_cmd_2_saves
                0x00000000c006a978       0x20 common/libcommon.o
                0x00000000c006a978                _u_boot_list_2_cmd_2_saves
 .u_boot_list_2_cmd_2_setenv
                0x00000000c006a998       0x20 common/libcommon.o
                0x00000000c006a998                _u_boot_list_2_cmd_2_setenv
 .u_boot_list_2_cmd_2_setexpr
                0x00000000c006a9b8       0x20 common/libcommon.o
                0x00000000c006a9b8                _u_boot_list_2_cmd_2_setexpr
 .u_boot_list_2_cmd_2_sha1sum
                0x00000000c006a9d8       0x20 common/libcommon.o
                0x00000000c006a9d8                _u_boot_list_2_cmd_2_sha1sum
 .u_boot_list_2_cmd_2_sleep
                0x00000000c006a9f8       0x20 common/libcommon.o
                0x00000000c006a9f8                _u_boot_list_2_cmd_2_sleep
 .u_boot_list_2_cmd_2_source
                0x00000000c006aa18       0x20 common/libcommon.o
                0x00000000c006aa18                _u_boot_list_2_cmd_2_source
 .u_boot_list_2_cmd_2_strings
                0x00000000c006aa38       0x20 common/libcommon.o
                0x00000000c006aa38                _u_boot_list_2_cmd_2_strings
 .u_boot_list_2_cmd_2_tftp
                0x00000000c006aa58       0x20 arch/mips/cpu/octeon/libocteon.o
                0x00000000c006aa58                _u_boot_list_2_cmd_2_tftp
 .u_boot_list_2_cmd_2_tftpboot
                0x00000000c006aa78       0x20 common/libcommon.o
                0x00000000c006aa78                _u_boot_list_2_cmd_2_tftpboot
 .u_boot_list_2_cmd_2_tftpput
                0x00000000c006aa98       0x20 common/libcommon.o
                0x00000000c006aa98                _u_boot_list_2_cmd_2_tftpput
 .u_boot_list_2_cmd_2_tftpsrv
                0x00000000c006aab8       0x20 common/libcommon.o
                0x00000000c006aab8                _u_boot_list_2_cmd_2_tftpsrv
 .u_boot_list_2_cmd_2_time
                0x00000000c006aad8       0x20 common/libcommon.o
                0x00000000c006aad8                _u_boot_list_2_cmd_2_time
 .u_boot_list_2_cmd_2_unlzma
                0x00000000c006aaf8       0x20 common/libcommon.o
                0x00000000c006aaf8                _u_boot_list_2_cmd_2_unlzma
 .u_boot_list_2_cmd_2_unzip
                0x00000000c006ab18       0x20 common/libcommon.o
                0x00000000c006ab18                _u_boot_list_2_cmd_2_unzip
 .u_boot_list_2_cmd_2_version
                0x00000000c006ab38       0x20 common/libcommon.o
                0x00000000c006ab38                _u_boot_list_2_cmd_2_version
 .u_boot_list_2_cmd_2_write64
                0x00000000c006ab58       0x20 arch/mips/cpu/octeon/libocteon.o
                0x00000000c006ab58                _u_boot_list_2_cmd_2_write64
 .u_boot_list_2_cmd_2_write64b
                0x00000000c006ab78       0x20 arch/mips/cpu/octeon/libocteon.o
                0x00000000c006ab78                _u_boot_list_2_cmd_2_write64b
 .u_boot_list_2_cmd_2_write64l
                0x00000000c006ab98       0x20 arch/mips/cpu/octeon/libocteon.o
                0x00000000c006ab98                _u_boot_list_2_cmd_2_write64l
 .u_boot_list_2_cmd_2_write64s
                0x00000000c006abb8       0x20 arch/mips/cpu/octeon/libocteon.o
                0x00000000c006abb8                _u_boot_list_2_cmd_2_write64s
 .u_boot_list_2_cmd_3
                0x00000000c006abd8        0x0 common/libcommon.o
 .u_boot_list_2_env_clbk_1
                0x00000000c006abd8        0x0 common/libcommon.o
 .u_boot_list_2_env_clbk_2_baudrate
                0x00000000c006abd8        0x8 drivers/serial/libserial.o
                0x00000000c006abd8                _u_boot_list_2_env_clbk_2_baudrate
 .u_boot_list_2_env_clbk_2_bootfile
                0x00000000c006abe0        0x8 net/libnet.o
                0x00000000c006abe0                _u_boot_list_2_env_clbk_2_bootfile
 .u_boot_list_2_env_clbk_2_callbacks
                0x00000000c006abe8        0x8 common/libcommon.o
                0x00000000c006abe8                _u_boot_list_2_env_clbk_2_callbacks
 .u_boot_list_2_env_clbk_2_console
                0x00000000c006abf0        0x8 common/libcommon.o
                0x00000000c006abf0                _u_boot_list_2_env_clbk_2_console
 .u_boot_list_2_env_clbk_2_console_uart
                0x00000000c006abf8        0x8 arch/mips/cpu/octeon/libocteon.o
                0x00000000c006abf8                _u_boot_list_2_env_clbk_2_console_uart
 .u_boot_list_2_env_clbk_2_flags
                0x00000000c006ac00        0x8 common/libcommon.o
                0x00000000c006ac00                _u_boot_list_2_env_clbk_2_flags
 .u_boot_list_2_env_clbk_2_loadaddr
                0x00000000c006ac08        0x8 common/libcommon.o
                0x00000000c006ac08                _u_boot_list_2_env_clbk_2_loadaddr
 .u_boot_list_2_env_clbk_2_pci_console_active
                0x00000000c006ac10        0x8 arch/mips/cpu/octeon/libocteon.o
                0x00000000c006ac10                _u_boot_list_2_env_clbk_2_pci_console_active
 .u_boot_list_2_env_clbk_2_silent
                0x00000000c006ac18        0x8 common/libcommon.o
                0x00000000c006ac18                _u_boot_list_2_env_clbk_2_silent
 .u_boot_list_2_env_clbk_3
                0x00000000c006ac20        0x0 common/libcommon.o
 .u_boot_list_2_i2c_1
                0x00000000c006ac20        0x0 common/libcommon.o
 .u_boot_list_2_i2c_1
                0x00000000c006ac20        0x0 drivers/i2c/libi2c.o
 .u_boot_list_2_i2c_2_octeon0
                0x00000000c006ac20       0x28 drivers/i2c/libi2c.o
                0x00000000c006ac20                _u_boot_list_2_i2c_2_octeon0
 .u_boot_list_2_i2c_2_octeon1
                0x00000000c006ac48       0x28 drivers/i2c/libi2c.o
                0x00000000c006ac48                _u_boot_list_2_i2c_2_octeon1
 .u_boot_list_2_i2c_2_octeon2
                0x00000000c006ac70       0x28 drivers/i2c/libi2c.o
                0x00000000c006ac70                _u_boot_list_2_i2c_2_octeon2
 .u_boot_list_2_i2c_2_octeon3
                0x00000000c006ac98       0x28 drivers/i2c/libi2c.o
                0x00000000c006ac98                _u_boot_list_2_i2c_2_octeon3
 .u_boot_list_2_i2c_2_octeon4
                0x00000000c006acc0       0x28 drivers/i2c/libi2c.o
                0x00000000c006acc0                _u_boot_list_2_i2c_2_octeon4
 .u_boot_list_2_i2c_2_octeon5
                0x00000000c006ace8       0x28 drivers/i2c/libi2c.o
                0x00000000c006ace8                _u_boot_list_2_i2c_2_octeon5
 .u_boot_list_2_i2c_2_octeon6
                0x00000000c006ad10       0x28 drivers/i2c/libi2c.o
                0x00000000c006ad10                _u_boot_list_2_i2c_2_octeon6
 .u_boot_list_2_i2c_2_octeon7
                0x00000000c006ad38       0x28 drivers/i2c/libi2c.o
                0x00000000c006ad38                _u_boot_list_2_i2c_2_octeon7
 .u_boot_list_2_i2c_3
                0x00000000c006ad60        0x0 common/libcommon.o
 .u_boot_list_2_i2c_3
                0x00000000c006ad60        0x0 drivers/i2c/libi2c.o
                0x00000000c006ad60                . = ALIGN (0x8)
                0x00000000c006ad60                uboot_end_data = .
                0x00000000c006ad60                __image_copy_end = .

.sbss
 *(.sbss)
 *(.sbss.*)

.bss            0x00000000c006ad80    0xc9e58
 *(.bss)
 *(.bss.*)
 .bss.calls_no  0x00000000c006ad80        0x4 api/libapi.o
 *fill*         0x00000000c006ad84        0x4 
 .bss.calls_table
                0x00000000c006ad88       0x50 api/libapi.o
 .bss.cvmx_bootmem_desc_addr
                0x00000000c006add8        0x8 arch/mips/cpu/octeon/cvmx/libcvmx.o
 .bss.desc.131282
                0x00000000c006ade0       0x90 arch/mips/cpu/octeon/cvmx/libcvmx.o
 .bss.block_num.131444
                0x00000000c006ae70        0x4 arch/mips/cpu/octeon/cvmx/libcvmx.o
 *fill*         0x00000000c006ae74        0x4 
 .bss.state     0x00000000c006ae78     0x15c0 arch/mips/cpu/octeon/cvmx/libcvmx.o
 .bss.qlm_base.132265
                0x00000000c006c438        0x8 arch/mips/cpu/octeon/cvmx/libcvmx.o
 .bss.timestamp
                0x00000000c006c440        0x4 arch/mips/cpu/octeon/libocteon.o
 .bss.boot_flags
                0x00000000c006c444        0x4 arch/mips/cpu/octeon/libocteon.o
                0x00000000c006c444                boot_flags
 .bss.forceboot
                0x00000000c006c448        0x4 arch/mips/cpu/octeon/libocteon.o
                0x00000000c006c448                forceboot
 *fill*         0x00000000c006c44c        0x4 
 .bss.lock.132410
                0x00000000c006c450        0x8 arch/mips/cpu/octeon/libocteon.o
 .bss.dp_last_addr
                0x00000000c006c458        0x8 arch/mips/cpu/octeon/libocteon.o
 .bss.dp_last_size
                0x00000000c006c460        0x8 arch/mips/cpu/octeon/libocteon.o
 .bss.dp_last_swap
                0x00000000c006c468        0x4 arch/mips/cpu/octeon/libocteon.o
 *fill*         0x00000000c006c46c        0x4 
 .bss.mm_last_addr
                0x00000000c006c470        0x8 arch/mips/cpu/octeon/libocteon.o
 .bss.mm_last_size
                0x00000000c006c478        0x8 arch/mips/cpu/octeon/libocteon.o
 .bss.start_core0
                0x00000000c006c480        0x4 arch/mips/cpu/octeon/libocteon.o
                0x00000000c006c480                start_core0
 *fill*         0x00000000c006c484        0x4 
 .bss.empty_cm.132266
                0x00000000c006c488       0x80 arch/mips/cpu/octeon/libocteon.o
 .bss.saved_exception_base.132289
                0x00000000c006c508        0x4 arch/mips/cpu/octeon/libocteon.o
 .bss.load_reserved_size
                0x00000000c006c50c        0x4 arch/mips/lib/libmips.o
                0x00000000c006c50c                load_reserved_size
 .bss.load_reserved_addr
                0x00000000c006c510        0x4 arch/mips/lib/libmips.o
                0x00000000c006c510                load_reserved_addr
 .bss.linux_argc
                0x00000000c006c514        0x4 arch/mips/lib/libmips.o
 .bss.linux_argv
                0x00000000c006c518        0x4 arch/mips/lib/libmips.o
 .bss.linux_env
                0x00000000c006c51c        0x4 arch/mips/lib/libmips.o
 .bss.linux_env_p
                0x00000000c006c520        0x4 arch/mips/lib/libmips.o
 .bss.linux_env_idx
                0x00000000c006c524        0x4 arch/mips/lib/libmips.o
 .bss.data.131302
                0x00000000c006c528      0x400 common/libcommon.o
 .bss.i2c_mm_last_chip
                0x00000000c006c928        0x1 common/libcommon.o
 *fill*         0x00000000c006c929        0x3 
 .bss.i2c_mm_last_addr
                0x00000000c006c92c        0x4 common/libcommon.o
 .bss.i2c_mm_last_alen
                0x00000000c006c930        0x4 common/libcommon.o
 .bss.i2c_dp_last_chip
                0x00000000c006c934        0x1 common/libcommon.o
 *fill*         0x00000000c006c935        0x3 
 .bss.i2c_dp_last_addr
                0x00000000c006c938        0x4 common/libcommon.o
 .bss.i2c_dp_last_alen
                0x00000000c006c93c        0x4 common/libcommon.o
 .bss.bin_start_address
                0x00000000c006c940        0x4 common/libcommon.o
 .bss.os_data_init
                0x00000000c006c944        0x4 common/libcommon.o
 .bss.os_data_char
                0x00000000c006c948        0x4 common/libcommon.o
 .bss.os_data_state
                0x00000000c006c94c        0x4 common/libcommon.o
 .bss.os_data_addr
                0x00000000c006c950        0x4 common/libcommon.o
 .bss.his_eol   0x00000000c006c954        0x1 common/libcommon.o
 *fill*         0x00000000c006c955        0x3 
 .bss.his_pad_count
                0x00000000c006c958        0x4 common/libcommon.o
 .bss.his_pad_char
                0x00000000c006c95c        0x1 common/libcommon.o
 .bss.his_quote
                0x00000000c006c95d        0x1 common/libcommon.o
 *fill*         0x00000000c006c95e        0x2 
 .bss.send_ptr  0x00000000c006c960        0x4 common/libcommon.o
 *fill*         0x00000000c006c964        0x4 
 .bss.send_parms
                0x00000000c006c968       0x18 common/libcommon.o
 .bss.k_data_escape
                0x00000000c006c980        0x4 common/libcommon.o
 .bss.k_data_escape_saved
                0x00000000c006c984        0x4 common/libcommon.o
 .bss.os_data_state_saved
                0x00000000c006c988        0x4 common/libcommon.o
 .bss.os_data_addr_saved
                0x00000000c006c98c        0x4 common/libcommon.o
 .bss.a_b       0x00000000c006c990       0x18 common/libcommon.o
 .bss.dp_last_addr
                0x00000000c006c9a8        0x4 common/libcommon.o
 .bss.dp_last_size
                0x00000000c006c9ac        0x4 common/libcommon.o
 .bss.base_address
                0x00000000c006c9b0        0x4 common/libcommon.o
 .bss.mm_last_addr
                0x00000000c006c9b4        0x4 common/libcommon.o
 .bss.mm_last_size
                0x00000000c006c9b8        0x4 common/libcommon.o
 *fill*         0x00000000c006c9bc        0x4 
 .bss.last_op   0x00000000c006c9c0        0x8 common/libcommon.o
 .bss.last_addr_lo
                0x00000000c006c9c8        0x4 common/libcommon.o
 .bss.last_addr_hi
                0x00000000c006c9cc        0x4 common/libcommon.o
 .bss.last_reg_lo
                0x00000000c006c9d0        0x4 common/libcommon.o
 .bss.last_reg_hi
                0x00000000c006c9d4        0x4 common/libcommon.o
 .bss.last_data
                0x00000000c006c9d8        0x4 common/libcommon.o
 .bss.start_addr
                0x00000000c006c9dc        0x4 common/libcommon.o
 .bss.last_addr
                0x00000000c006c9e0        0x4 common/libcommon.o
 *fill*         0x00000000c006c9e4        0x4 
 .bss.tmp_buf.4407
                0x00000000c006c9e8      0x200 common/libcommon.o
 .bss.tmp_buf   0x00000000c006cbe8      0x400 common/libcommon.o
 .bss.tstcdev   0x00000000c006cfe8        0x4 common/libcommon.o
 .bss.ctrlc_disabled
                0x00000000c006cfec        0x4 common/libcommon.o
 .bss.ctrlc_was_pressed
                0x00000000c006cff0        0x4 common/libcommon.o
 .bss.mem_malloc_brk
                0x00000000c006cff4        0x4 common/libcommon.o
                0x00000000c006cff4                mem_malloc_brk
 .bss.mem_malloc_end
                0x00000000c006cff8        0x4 common/libcommon.o
                0x00000000c006cff8                mem_malloc_end
 .bss.mem_malloc_start
                0x00000000c006cffc        0x4 common/libcommon.o
                0x00000000c006cffc                mem_malloc_start
 .bss.top_pad   0x00000000c006d000        0x4 common/libcommon.o
 *fill*         0x00000000c006d004        0x4 
 .bss.current_mallinfo
                0x00000000c006d008       0x28 common/libcommon.o
 .bss.max_sbrked_mem
                0x00000000c006d030        0x4 common/libcommon.o
 .bss.max_total_mem
                0x00000000c006d034        0x4 common/libcommon.o
 .bss.lastcommand.131582
                0x00000000c006d038      0x400 common/libcommon.o
 .bss.initted.131718
                0x00000000c006d438        0x4 common/libcommon.o
 .bss.hist_max  0x00000000c006d43c        0x4 common/libcommon.o
 .bss.hist_add_idx
                0x00000000c006d440        0x4 common/libcommon.o
 .bss.hist_num  0x00000000c006d444        0x4 common/libcommon.o
 .bss.hist_lines
                0x00000000c006d448     0x5018 common/libcommon.o
 .bss.hist_list
                0x00000000c0072460       0x50 common/libcommon.o
 .bss.mii_devs  0x00000000c00724b0        0x8 common/libcommon.o
 .bss.current_mii
                0x00000000c00724b8        0x4 common/libcommon.o
 *fill*         0x00000000c00724bc        0x4 
 .bss.stdio_devices
                0x00000000c00724c0       0x10 common/libcommon.o
                0x00000000c00724c0                stdio_devices
 .bss.devs      0x00000000c00724d0       0x40 common/libcommon.o
 .bss.xyz       0x00000000c0072510      0x438 common/libcommon.o
 .bss.twsi_stop_delay
                0x00000000c0072948       0x20 drivers/i2c/libi2c.o
 .bss.serial_devices
                0x00000000c0072968        0x4 drivers/serial/libserial.o
 .bss.serial_current
                0x00000000c007296c        0x4 drivers/serial/libserial.o
 .bss.address_map
                0x00000000c0072970       0xc0 lib/libgeneric.o
 .bss.errno     0x00000000c0072a30        0x4 lib/libgeneric.o
                0x00000000c0072a30                errno
 *fill*         0x00000000c0072a34        0x4 
 .bss.local.4639
                0x00000000c0072a38       0x18 lib/libgeneric.o
 .bss.NetArpWaitReplyIP
                0x00000000c0072a50        0x4 net/libnet.o
 .bss.NetArpTxPacket
                0x00000000c0072a54        0x4 net/libnet.o
 .bss.NetArpPacketBuf
                0x00000000c0072a58      0x680 net/libnet.o
 .bss.dhcp_state
                0x00000000c00730d8        0x4 net/libnet.o
 .bss.NetDHCPServerIP
                0x00000000c00730dc        0x4 net/libnet.o
 .bss.dhcp_leasetime
                0x00000000c00730e0        0x4 net/libnet.o
 .bss.CDPOK     0x00000000c00730e4        0x4 net/libnet.o
 .bss.CDPSeq    0x00000000c00730e8        0x4 net/libnet.o
 .bss.DnsOurPort
                0x00000000c00730ec        0x4 net/libnet.o
 .bss.eth_devices
                0x00000000c00730f0        0x4 net/libnet.o
 .bss.eth_rcv_current
                0x00000000c00730f4        0x4 net/libnet.o
 .bss.eth_rcv_last
                0x00000000c00730f8        0x4 net/libnet.o
 *fill*         0x00000000c00730fc        0x4 
 .bss.eth_rcv_bufs
                0x00000000c0073100     0x17d0 net/libnet.o
 .bss.first_failed.4932
                0x00000000c00748d0        0x4 net/libnet.o
 .bss.act.4937  0x00000000c00748d4        0x4 net/libnet.o
 .bss.env_changed_id.4938
                0x00000000c00748d8        0x4 net/libnet.o
 .bss.push_packet
                0x00000000c00748dc        0x4 net/libnet.o
                0x00000000c00748dc                push_packet
 .bss.NetOurRootPath
                0x00000000c00748e0       0x40 net/libnet.o
                0x00000000c00748e0                NetOurRootPath
 .bss.NetOurHostName
                0x00000000c0074920       0x20 net/libnet.o
                0x00000000c0074920                NetOurHostName
 .bss.NetOurNISDomain
                0x00000000c0074940       0x20 net/libnet.o
                0x00000000c0074940                NetOurNISDomain
 .bss.PktBuf    0x00000000c0074960     0x1e80 net/libnet.o
 .bss.udp_packet_handler
                0x00000000c00767e0        0x4 net/libnet.o
 .bss.arp_packet_handler
                0x00000000c00767e4        0x4 net/libnet.o
 .bss.timeHandler
                0x00000000c00767e8        0x4 net/libnet.o
 .bss.timeStart
                0x00000000c00767ec        0x4 net/libnet.o
 .bss.timeDelta
                0x00000000c00767f0        0x4 net/libnet.o
 .bss.env_changed_id.4647
                0x00000000c00767f4        0x4 net/libnet.o
 .bss.NetRestarted
                0x00000000c00767f8        0x4 net/libnet.o
 .bss.NetDevExists
                0x00000000c00767fc        0x4 net/libnet.o
 .bss.NetTryCount
                0x00000000c0076800        0x4 net/libnet.o
 .bss.packet_icmp_handler
                0x00000000c0076804        0x4 net/libnet.o
 .bss.nfs_download_state
                0x00000000c0076808        0x4 net/libnet.o
 .bss.NfsServerIP
                0x00000000c007680c        0x4 net/libnet.o
 .bss.nfs_path  0x00000000c0076810        0x4 net/libnet.o
 *fill*         0x00000000c0076814        0x4 
 .bss.nfs_path_buff
                0x00000000c0076818      0x800 net/libnet.o
 .bss.default_filename
                0x00000000c0077018       0x50 net/libnet.o
 .bss.nfs_filename
                0x00000000c0077068        0x4 net/libnet.o
 .bss.NfsTimeoutCount
                0x00000000c007706c        0x4 net/libnet.o
 .bss.NfsState  0x00000000c0077070        0x4 net/libnet.o
 .bss.NfsOurPort
                0x00000000c0077074        0x4 net/libnet.o
 .bss.nfs_len   0x00000000c0077078        0x4 net/libnet.o
 .bss.rpc_id    0x00000000c007707c        0x4 net/libnet.o
 .bss.filefh    0x00000000c0077080       0x20 net/libnet.o
 .bss.fs_mounted
                0x00000000c00770a0        0x4 net/libnet.o
 *fill*         0x00000000c00770a4        0x4 
 .bss.dirfh     0x00000000c00770a8       0x20 net/libnet.o
 .bss.NfsSrvMountPort
                0x00000000c00770c8        0x4 net/libnet.o
 .bss.NfsSrvNfsPort
                0x00000000c00770cc        0x4 net/libnet.o
 .bss.PingSeqNo
                0x00000000c00770d0        0x2 net/libnet.o
 *fill*         0x00000000c00770d2        0x2 
 .bss.TftpRemoteIP
                0x00000000c00770d4        0x4 net/libnet.o
 .bss.tftp_filename
                0x00000000c00770d8       0x80 net/libnet.o
 .bss.TftpWriting
                0x00000000c0077158        0x4 net/libnet.o
 .bss.TftpState
                0x00000000c007715c        0x4 net/libnet.o
 .bss.time_start
                0x00000000c0077160        0x4 net/libnet.o
 .bss.TftpRemotePort
                0x00000000c0077164        0x4 net/libnet.o
 .bss.TftpTimeoutCount
                0x00000000c0077168        0x4 net/libnet.o
 .bss.TftpOurPort
                0x00000000c007716c        0x4 net/libnet.o
 .bss.TftpBlock
                0x00000000c0077170        0x4 net/libnet.o
 .bss.TftpTsize
                0x00000000c0077174        0x4 net/libnet.o
 .bss.TftpNumchars
                0x00000000c0077178        0x2 net/libnet.o
 *fill*         0x00000000c007717a        0x2 
 .bss.TftpFinalBlock
                0x00000000c007717c        0x4 net/libnet.o
 .bss.TftpLastBlock
                0x00000000c0077180        0x4 net/libnet.o
 .bss.TftpBlockWrapOffset
                0x00000000c0077184        0x4 net/libnet.o
 .bss.TftpBlockWrap
                0x00000000c0077188        0x4 net/libnet.o
 *fill*         0x00000000c007718c       0x74 
 COMMON         0x00000000c0077200      0x1c8 arch/mips/cpu/octeon/cvmx/libcvmx.o
                0x00000000c0077200                __cvmx_qlm_jtag_xor_ref
                0x00000000c0077208                cvmx_l2c_vrt_spinlock
                0x00000000c0077210                lock
                0x00000000c0077218                cvmx_l2c_spinlock
                0x00000000c0077220                iface_node_ops
                0x00000000c00772d0                cvmx_app_id
                0x00000000c00772d8                cvmx_export_app_config
                0x00000000c0077300                octeon_feature_map
                0x00000000c0077380                pcpu_cfg_blk
                0x00000000c0077384                cvmx_enable_helper_flag
                0x00000000c0077388                octeon_attr_map
                0x00000000c0077390                cvmx_override_iface_phy_mode
                0x00000000c0077398                __cvmx_pko_queue_static_config
                0x00000000c00773b8                __cvmx_cmd_queue_state_ptrs
 COMMON         0x00000000c00773c8    0xbd08c arch/mips/cpu/octeon/libocteon.o
                0x00000000c00773c8                cvmx_bootinfo_array
                0x00000000c00bf3c8                boot_desc
                0x00000000c01233c8                boot_cycle_adjustment
                0x00000000c01233d0                boot_info_block_array
                0x00000000c01313d0                coremask_to_run
                0x00000000c0131450                regs
                0x00000000c0134450                octeon_boot_descriptor_flag
 COMMON         0x00000000c0134454        0x4 arch/mips/lib/libmips.o
                0x00000000c0134454                monitor_flash_len
 COMMON         0x00000000c0134458      0x664 common/libcommon.o
                0x00000000c0134458                console_buffer
                0x00000000c013485c                save_addr
                0x00000000c0134860                cd_count
                0x00000000c013486c                env_ptr
                0x00000000c0134870                images
                0x00000000c0134a68                uboot_prompt
                0x00000000c0134aa8                working_fdt
                0x00000000c0134aac                save_size
                0x00000000c0134ab0                console_devices
 *fill*         0x00000000c0134abc        0x4 
 COMMON         0x00000000c0134ac0      0x118 net/libnet.o
                0x00000000c0134ac0                NetDNSenvvar
                0x00000000c0134ac4                CDPApplianceVLAN
                0x00000000c0134ac8                NetArpWaitTry
                0x00000000c0134acc                NetArpWaitPacketMAC
                0x00000000c0134ad0                NetOurEther
                0x00000000c0134ad8                NetOurIP
                0x00000000c0134adc                NetPingIP
                0x00000000c0134ae0                NetServerIP
                0x00000000c0134ae4                NetArpWaitTxPacketSize
                0x00000000c0134ae8                NetRxPackets
                0x00000000c0134af8                NetArpWaitPacketIP
                0x00000000c0134afc                BootpTry
                0x00000000c0134b00                BootFile
                0x00000000c0134b80                eth_current
                0x00000000c0134b84                NetDNSResolve
                0x00000000c0134b88                NetServerEther
                0x00000000c0134b90                NetOurSubnetMask
                0x00000000c0134b94                NetBootFileSize
                0x00000000c0134b98                net_busy_flag
                0x00000000c0134b9c                NetIPID
                0x00000000c0134ba0                NetRxPacket
                0x00000000c0134ba4                net_state
                0x00000000c0134ba8                BootpID
                0x00000000c0134bac                CDPNativeVLAN
                0x00000000c0134bb0                NetOurGatewayIP
                0x00000000c0134bb8                NetEtherNullAddr
                0x00000000c0134bc0                NetRestartWrap
                0x00000000c0134bc4                NetTxPacket
                0x00000000c0134bc8                NetBootFileXferSize
                0x00000000c0134bcc                NetOurDNSIP
                0x00000000c0134bd0                NetRxPacketLen
                0x00000000c0134bd4                NetArpWaitTimerStart

.scommon
 *(.scommon)
 *(.scommon.*)

.cvmx_shared_bss
 *(.cvmx_shared_bss)
 *(.cvmx_shared_bss.*)
                0x00000000c0134bd8                uboot_end = .

.debug
 *(.debug)

.line
 *(.line)

.debug_srcinfo
 *(.debug_srcinfo)

.debug_sfnames
 *(.debug_sfnames)

.debug_aranges  0x0000000000000000     0x43c8
 *(.debug_aranges)
 .debug_aranges
                0x0000000000000000       0x20 arch/mips/cpu/octeon/start.o
 .debug_aranges
                0x0000000000000020      0x1b8 api/libapi.o
 .debug_aranges
                0x00000000000001d8     0x1060 arch/mips/cpu/octeon/cvmx/libcvmx.o
 .debug_aranges
                0x0000000000001238      0xbd0 arch/mips/cpu/octeon/libocteon.o
 .debug_aranges
                0x0000000000001e08       0xc8 arch/mips/lib/libmips.o
 .debug_aranges
                0x0000000000001ed0      0x178 board/octeon/common/libocteon.o
 .debug_aranges
                0x0000000000002048     0x1060 common/libcommon.o
 .debug_aranges
                0x00000000000030a8       0x68 disk/libdisk.o
 .debug_aranges
                0x0000000000003110       0x58 drivers/gpio/libgpio.o
 .debug_aranges
                0x0000000000003168      0x168 drivers/i2c/libi2c.o
 .debug_aranges
                0x00000000000032d0       0x30 drivers/rtc/librtc.o
 .debug_aranges
                0x0000000000003300      0x100 drivers/serial/libserial.o
 .debug_aranges
                0x0000000000003400      0x2d0 lib/libfdt/libfdt.o
 .debug_aranges
                0x00000000000036d0      0x788 lib/libgeneric.o
 .debug_aranges
                0x0000000000003e58       0xb8 lib/lzma/liblzma.o
 .debug_aranges
                0x0000000000003f10       0x68 lib/zlib/libz.o
 .debug_aranges
                0x0000000000003f78      0x400 net/libnet.o
 .debug_aranges
                0x0000000000004378       0x50 board/octeon/sim/libsim.o

.debug_pubnames
 *(.debug_pubnames)

.debug_info     0x0000000000000000   0x1a04a6
 *(.debug_info .gnu.linkonce.wi.*)
 .debug_info    0x0000000000000000       0x6d arch/mips/cpu/octeon/start.o
 .debug_info    0x000000000000006d     0x3e2b api/libapi.o
 .debug_info    0x0000000000003e98    0x9bd8e arch/mips/cpu/octeon/cvmx/libcvmx.o
 .debug_info    0x000000000009fc26    0x84da3 arch/mips/cpu/octeon/libocteon.o
 .debug_info    0x00000000001249c9     0x6423 arch/mips/lib/libmips.o
 .debug_info    0x000000000012adec     0x67fb board/octeon/common/libocteon.o
 .debug_info    0x00000000001315e7    0x3afea common/libcommon.o
 .debug_info    0x000000000016c5d1     0x1e06 disk/libdisk.o
 .debug_info    0x000000000016e3d7     0x2d3a drivers/gpio/libgpio.o
 .debug_info    0x0000000000171111     0x3bd1 drivers/i2c/libi2c.o
 .debug_info    0x0000000000174ce2      0x5d4 drivers/rtc/librtc.o
 .debug_info    0x00000000001752b6     0x369d drivers/serial/libserial.o
 .debug_info    0x0000000000178953     0x5c91 lib/libfdt/libfdt.o
 .debug_info    0x000000000017e5e4     0xfa87 lib/libgeneric.o
 .debug_info    0x000000000018e06b     0x1d75 lib/lzma/liblzma.o
 .debug_info    0x000000000018fde0     0x1701 lib/zlib/libz.o
 .debug_info    0x00000000001914e1     0xc2d6 net/libnet.o
 .debug_info    0x000000000019d7b7     0x2cef board/octeon/sim/libsim.o

.debug_abbrev   0x0000000000000000    0x24859
 *(.debug_abbrev)
 .debug_abbrev  0x0000000000000000       0x14 arch/mips/cpu/octeon/start.o
 .debug_abbrev  0x0000000000000014      0xcdd api/libapi.o
 .debug_abbrev  0x0000000000000cf1     0x86d0 arch/mips/cpu/octeon/cvmx/libcvmx.o
 .debug_abbrev  0x00000000000093c1     0x6d15 arch/mips/cpu/octeon/libocteon.o
 .debug_abbrev  0x00000000000100d6      0x973 arch/mips/lib/libmips.o
 .debug_abbrev  0x0000000000010a49      0xee0 board/octeon/common/libocteon.o
 .debug_abbrev  0x0000000000011929     0x98e8 common/libcommon.o
 .debug_abbrev  0x000000000001b211      0x4f6 disk/libdisk.o
 .debug_abbrev  0x000000000001b707      0x403 drivers/gpio/libgpio.o
 .debug_abbrev  0x000000000001bb0a      0x8f2 drivers/i2c/libi2c.o
 .debug_abbrev  0x000000000001c3fc      0x1a3 drivers/rtc/librtc.o
 .debug_abbrev  0x000000000001c59f      0x903 drivers/serial/libserial.o
 .debug_abbrev  0x000000000001cea2      0xf78 lib/libfdt/libfdt.o
 .debug_abbrev  0x000000000001de1a     0x36d7 lib/libgeneric.o
 .debug_abbrev  0x00000000000214f1      0x5f5 lib/lzma/liblzma.o
 .debug_abbrev  0x0000000000021ae6      0x435 lib/zlib/libz.o
 .debug_abbrev  0x0000000000021f1b     0x24df net/libnet.o
 .debug_abbrev  0x00000000000243fa      0x45f board/octeon/sim/libsim.o

.debug_line     0x0000000000000000    0x489f6
 *(.debug_line)
 .debug_line    0x0000000000000000      0x48d arch/mips/cpu/octeon/start.o
 .debug_line    0x000000000000048d      0xe15 api/libapi.o
 .debug_line    0x00000000000012a2    0x188f8 arch/mips/cpu/octeon/cvmx/libcvmx.o
 .debug_line    0x0000000000019b9a    0x14cb0 arch/mips/cpu/octeon/libocteon.o
 .debug_line    0x000000000002e84a     0x1130 arch/mips/lib/libmips.o
 .debug_line    0x000000000002f97a     0x12de board/octeon/common/libocteon.o
 .debug_line    0x0000000000030c58     0xb602 common/libcommon.o
 .debug_line    0x000000000003c25a      0x607 disk/libdisk.o
 .debug_line    0x000000000003c861      0x632 drivers/gpio/libgpio.o
 .debug_line    0x000000000003ce93      0x9dd drivers/i2c/libi2c.o
 .debug_line    0x000000000003d870      0x1cb drivers/rtc/librtc.o
 .debug_line    0x000000000003da3b      0x985 drivers/serial/libserial.o
 .debug_line    0x000000000003e3c0     0x1452 lib/libfdt/libfdt.o
 .debug_line    0x000000000003f812     0x4caf lib/libgeneric.o
 .debug_line    0x00000000000444c1      0x9fe lib/lzma/liblzma.o
 .debug_line    0x0000000000044ebf      0xe85 lib/zlib/libz.o
 .debug_line    0x0000000000045d44     0x27e0 net/libnet.o
 .debug_line    0x0000000000048524      0x4d2 board/octeon/sim/libsim.o

.debug_frame
 *(.debug_frame)

.debug_str      0x0000000000000000    0x28a56
 *(.debug_str)
 .debug_str     0x0000000000000000      0xb7e api/libapi.o
                                       0x22f5 (size before relaxing)
 .debug_str     0x0000000000000b7e    0x135c7 arch/mips/cpu/octeon/cvmx/libcvmx.o
                                      0x2e187 (size before relaxing)
 .debug_str     0x0000000000014145     0xb3fb arch/mips/cpu/octeon/libocteon.o
                                      0x22586 (size before relaxing)
 .debug_str     0x000000000001f540      0xf91 arch/mips/lib/libmips.o
                                       0x3ba7 (size before relaxing)
 .debug_str     0x00000000000204d1      0x69f board/octeon/common/libocteon.o
                                       0x4c52 (size before relaxing)
 .debug_str     0x0000000000020b70     0x3efa common/libcommon.o
                                      0x1b790 (size before relaxing)
 .debug_str     0x0000000000024a6a      0x104 disk/libdisk.o
                                       0x12bb (size before relaxing)
 .debug_str     0x0000000000024b6e       0xca drivers/gpio/libgpio.o
                                        0xe59 (size before relaxing)
 .debug_str     0x0000000000024c38      0x3d1 drivers/i2c/libi2c.o
                                       0x1738 (size before relaxing)
 .debug_str     0x0000000000025009       0x81 drivers/rtc/librtc.o
                                        0x37e (size before relaxing)
 .debug_str     0x000000000002508a      0x3af drivers/serial/libserial.o
                                       0x181d (size before relaxing)
 .debug_str     0x0000000000025439      0x6a0 lib/libfdt/libfdt.o
                                       0x19d0 (size before relaxing)
 .debug_str     0x0000000000025ad9     0x14b1 lib/libgeneric.o
                                       0x771b (size before relaxing)
 .debug_str     0x0000000000026f8a      0x4ef lib/lzma/liblzma.o
                                        0xa76 (size before relaxing)
 .debug_str     0x0000000000027479      0x290 lib/zlib/libz.o
                                        0x7a5 (size before relaxing)
 .debug_str     0x0000000000027709     0x1255 net/libnet.o
                                       0x5f5b (size before relaxing)
 .debug_str     0x000000000002895e       0xf8 board/octeon/sim/libsim.o
                                       0x21ac (size before relaxing)

.debug_loc      0x0000000000000000    0xe40d4
 *(.debug_loc)
 .debug_loc     0x0000000000000000     0x1735 api/libapi.o
 .debug_loc     0x0000000000001735    0x4ce6a arch/mips/cpu/octeon/cvmx/libcvmx.o
 .debug_loc     0x000000000004e59f    0x545a0 arch/mips/cpu/octeon/libocteon.o
 .debug_loc     0x00000000000a2b3f     0x191f arch/mips/lib/libmips.o
 .debug_loc     0x00000000000a445e     0x1d00 board/octeon/common/libocteon.o
 .debug_loc     0x00000000000a615e    0x1d605 common/libcommon.o
 .debug_loc     0x00000000000c3763      0x331 disk/libdisk.o
 .debug_loc     0x00000000000c3a94     0x1278 drivers/gpio/libgpio.o
 .debug_loc     0x00000000000c4d0c     0x1a8e drivers/i2c/libi2c.o
 .debug_loc     0x00000000000c679a      0x30d drivers/rtc/librtc.o
 .debug_loc     0x00000000000c6aa7      0xdfc drivers/serial/libserial.o
 .debug_loc     0x00000000000c78a3     0x50d9 lib/libfdt/libfdt.o
 .debug_loc     0x00000000000cc97c     0xb091 lib/libgeneric.o
 .debug_loc     0x00000000000d7a0d     0x37f3 lib/lzma/liblzma.o
 .debug_loc     0x00000000000db200     0x2d96 lib/zlib/libz.o
 .debug_loc     0x00000000000ddf96     0x5bd0 net/libnet.o
 .debug_loc     0x00000000000e3b66      0x56e board/octeon/sim/libsim.o

.debug_macinfo
 *(.debug_macinfo)

.debug_weaknames
 *(.debug_weaknames)

.debug_funcnames
 *(.debug_funcnames)

.debug_typenames
 *(.debug_typenames)

.debug_varnames
 *(.debug_varnames)

.gptab.sdata
 *(.gptab.data)
 *(.gptab.sdata)

.gptab.sbss
 *(.gptab.bss)
 *(.gptab.sbss)

/DISCARD/
 *(.note.GNU-stack)
Address of section .text set to 0xc0000000
LOAD arch/mips/cpu/octeon/start.o
START GROUP
LOAD api/libapi.o
LOAD arch/mips/cpu/octeon/cvmx/libcvmx.o
LOAD arch/mips/cpu/octeon/libocteon.o
LOAD arch/mips/lib/libmips.o
LOAD board/octeon/common/libocteon.o
LOAD common/libcommon.o
LOAD disk/libdisk.o
LOAD drivers/bios_emulator/libatibiosemu.o
LOAD drivers/block/libblock.o
LOAD drivers/crypto/libcrypto.o
LOAD drivers/dfu/libdfu.o
LOAD drivers/dma/libdma.o
LOAD drivers/fpga/libfpga.o
LOAD drivers/gpio/libgpio.o
LOAD drivers/hwmon/libhwmon.o
LOAD drivers/i2c/libi2c.o
LOAD drivers/input/libinput.o
LOAD drivers/misc/libmisc.o
LOAD drivers/mmc/libmmc.o
LOAD drivers/mtd/libmtd.o
LOAD drivers/mtd/nand/libnand.o
LOAD drivers/mtd/onenand/libonenand.o
LOAD drivers/mtd/spi/libspi_flash.o
LOAD drivers/mtd/ubi/libubi.o
LOAD drivers/net/libnet.o
LOAD drivers/net/phy/libphy.o
LOAD drivers/pci/libpci.o
LOAD drivers/pcmcia/libpcmcia.o
LOAD drivers/power/battery/libbattery.o
LOAD drivers/power/fuel_gauge/libfuel_gauge.o
LOAD drivers/power/libpower.o
LOAD drivers/power/pmic/libpmic.o
LOAD drivers/rtc/librtc.o
LOAD drivers/serial/libserial.o
LOAD drivers/sound/libsound.o
LOAD drivers/spi/libspi.o
LOAD drivers/tpm/libtpm.o
LOAD drivers/twserial/libtws.o
LOAD drivers/usb/eth/libusb_eth.o
LOAD drivers/usb/gadget/libusb_gadget.o
LOAD drivers/usb/host/libusb_host.o
LOAD drivers/usb/musb-new/libusb_musb-new.o
LOAD drivers/usb/musb/libusb_musb.o
LOAD drivers/usb/phy/libusb_phy.o
LOAD drivers/usb/ulpi/libusb_ulpi.o
LOAD drivers/video/libvideo.o
LOAD drivers/watchdog/libwatchdog.o
LOAD fs/cbfs/libcbfs.o
LOAD fs/cramfs/libcramfs.o
LOAD fs/ext4/libext4fs.o
LOAD fs/fat/libfat.o
LOAD fs/fdos/libfdos.o
LOAD fs/jffs2/libjffs2.o
LOAD fs/libfs.o
LOAD fs/reiserfs/libreiserfs.o
LOAD fs/sandbox/libsandboxfs.o
LOAD fs/ubifs/libubifs.o
LOAD fs/yaffs2/libyaffs2.o
LOAD fs/zfs/libzfs.o
LOAD lib/libfdt/libfdt.o
LOAD lib/libgeneric.o
LOAD lib/lzma/liblzma.o
LOAD lib/lzo/liblzo.o
LOAD lib/rsa/librsa.o
LOAD lib/zlib/libz.o
LOAD net/libnet.o
LOAD post/libpost.o
LOAD test/libtest.o
LOAD board/octeon/sim/libsim.o
END GROUP
LOAD /home/rakeshgarg/cavium/tools/tools-141023/bin/../lib/gcc/mips64-octeon-linux-gnu/4.7.0/n32/libgcc.a
OUTPUT(u-boot elf32-ntradbigmips)

.comment        0x0000000000000000       0x35
 .comment       0x0000000000000000       0x35 api/libapi.o
                                        0x10e (size before relaxing)
 .comment       0x0000000000000000      0x6f6 arch/mips/cpu/octeon/cvmx/libcvmx.o
 .comment       0x0000000000000000      0x6f6 arch/mips/cpu/octeon/libocteon.o
 .comment       0x0000000000000000       0x6c arch/mips/lib/libmips.o
 .comment       0x0000000000000000      0x10e board/octeon/common/libocteon.o
 .comment       0x0000000000000000      0xb64 common/libcommon.o
 .comment       0x0000000000000000       0xa2 disk/libdisk.o
 .comment       0x0000000000000000       0x36 drivers/gpio/libgpio.o
 .comment       0x0000000000000000       0x6c drivers/i2c/libi2c.o
 .comment       0x0000000000000000       0x36 drivers/rtc/librtc.o
 .comment       0x0000000000000000       0x6c drivers/serial/libserial.o
 .comment       0x0000000000000000      0x17a lib/libfdt/libfdt.o
 .comment       0x0000000000000000      0x654 lib/libgeneric.o
 .comment       0x0000000000000000       0x6c lib/lzma/liblzma.o
 .comment       0x0000000000000000       0x36 lib/zlib/libz.o
 .comment       0x0000000000000000      0x1e6 net/libnet.o
 .comment       0x0000000000000000       0x36 board/octeon/sim/libsim.o

.mdebug.abiN32  0x0000000000000000        0x0
 .mdebug.abiN32
                0x0000000000000000        0x0 api/libapi.o
 .mdebug.abiN32
                0x0000000000000000        0x0 arch/mips/cpu/octeon/cvmx/libcvmx.o
 .mdebug.abiN32
                0x0000000000000000        0x0 arch/mips/cpu/octeon/libocteon.o
 .mdebug.abiN32
                0x0000000000000000        0x0 arch/mips/lib/libmips.o
 .mdebug.abiN32
                0x0000000000000000        0x0 board/octeon/common/libocteon.o
 .mdebug.abiN32
                0x0000000000000000        0x0 common/libcommon.o
 .mdebug.abiN32
                0x0000000000000000        0x0 disk/libdisk.o
 .mdebug.abiN32
                0x0000000000000000        0x0 drivers/gpio/libgpio.o
 .mdebug.abiN32
                0x0000000000000000        0x0 drivers/i2c/libi2c.o
 .mdebug.abiN32
                0x0000000000000000        0x0 drivers/rtc/librtc.o
 .mdebug.abiN32
                0x0000000000000000        0x0 drivers/serial/libserial.o
 .mdebug.abiN32
                0x0000000000000000        0x0 lib/libfdt/libfdt.o
 .mdebug.abiN32
                0x0000000000000000        0x0 lib/libgeneric.o
 .mdebug.abiN32
                0x0000000000000000        0x0 lib/lzma/liblzma.o
 .mdebug.abiN32
                0x0000000000000000        0x0 lib/zlib/libz.o
 .mdebug.abiN32
                0x0000000000000000        0x0 net/libnet.o
 .mdebug.abiN32
                0x0000000000000000        0x0 board/octeon/sim/libsim.o

.gnu.attributes
                0x0000000000000000       0x10
 .gnu.attributes
                0x0000000000000000       0x10 api/libapi.o
 .gnu.attributes
                0x0000000000000010       0x10 arch/mips/cpu/octeon/cvmx/libcvmx.o
 .gnu.attributes
                0x0000000000000020       0x10 arch/mips/cpu/octeon/libocteon.o
 .gnu.attributes
                0x0000000000000030       0x10 arch/mips/lib/libmips.o
 .gnu.attributes
                0x0000000000000040       0x10 board/octeon/common/libocteon.o
 .gnu.attributes
                0x0000000000000050       0x10 common/libcommon.o
 .gnu.attributes
                0x0000000000000060       0x10 disk/libdisk.o
 .gnu.attributes
                0x0000000000000070       0x10 drivers/gpio/libgpio.o
 .gnu.attributes
                0x0000000000000080       0x10 drivers/i2c/libi2c.o
 .gnu.attributes
                0x0000000000000090       0x10 drivers/rtc/librtc.o
 .gnu.attributes
                0x00000000000000a0       0x10 drivers/serial/libserial.o
 .gnu.attributes
                0x00000000000000b0       0x10 lib/libfdt/libfdt.o
 .gnu.attributes
                0x00000000000000c0       0x10 lib/libgeneric.o
 .gnu.attributes
                0x00000000000000d0       0x10 lib/lzma/liblzma.o
 .gnu.attributes
                0x00000000000000e0       0x10 lib/zlib/libz.o
 .gnu.attributes
                0x00000000000000f0       0x10 net/libnet.o
 .gnu.attributes
                0x0000000000000100       0x10 board/octeon/sim/libsim.o

.debug_ranges   0x0000000000000000    0x1fbc8
 .debug_ranges  0x0000000000000000      0x1b8 api/libapi.o
 .debug_ranges  0x00000000000001b8    0x10420 arch/mips/cpu/octeon/cvmx/libcvmx.o
 .debug_ranges  0x00000000000105d8     0x9320 arch/mips/cpu/octeon/libocteon.o
 .debug_ranges  0x00000000000198f8      0x5d0 arch/mips/lib/libmips.o
 .debug_ranges  0x0000000000019ec8      0x3f8 board/octeon/common/libocteon.o
 .debug_ranges  0x000000000001a2c0     0x2548 common/libcommon.o
 .debug_ranges  0x000000000001c808       0x28 disk/libdisk.o
 .debug_ranges  0x000000000001c830      0x320 drivers/gpio/libgpio.o
 .debug_ranges  0x000000000001cb50      0x208 drivers/i2c/libi2c.o
 .debug_ranges  0x000000000001cd58       0x20 drivers/rtc/librtc.o
 .debug_ranges  0x000000000001cd78      0x348 drivers/serial/libserial.o
 .debug_ranges  0x000000000001d0c0      0x748 lib/libfdt/libfdt.o
 .debug_ranges  0x000000000001d808      0xde8 lib/libgeneric.o
 .debug_ranges  0x000000000001e5f0      0x440 lib/lzma/liblzma.o
 .debug_ranges  0x000000000001ea30       0x88 lib/zlib/libz.o
 .debug_ranges  0x000000000001eab8     0x1090 net/libnet.o
 .debug_ranges  0x000000000001fb48       0x80 board/octeon/sim/libsim.o
